ccopy_reg
_reconstructor
p0
(csklearn.pipeline
Pipeline
p1
c__builtin__
object
p2
Ntp3
Rp4
(dp5
S'_sklearn_version'
p6
S'0.19.1'
p7
sS'steps'
p8
(lp9
(S'standardscaler'
p10
g0
(csklearn.preprocessing.data
StandardScaler
p11
g2
Ntp12
Rp13
(dp14
S'copy'
p15
I01
sg6
g7
sS'with_mean'
p16
I01
sS'with_std'
p17
I01
sbtp18
a(S'linearsvc'
p19
g0
(csklearn.svm.classes
LinearSVC
p20
g2
Ntp21
Rp22
(dp23
S'loss'
p24
S'hinge'
p25
sS'C'
p26
I200
sS'intercept_scaling'
p27
I1
sS'verbose'
p28
I0
sS'fit_intercept'
p29
I01
sS'max_iter'
p30
I1000
sS'penalty'
p31
S'l2'
p32
sS'multi_class'
p33
S'ovr'
p34
sS'random_state'
p35
Nsg6
g7
sS'dual'
p36
I01
sS'tol'
p37
F0.0001
sS'class_weight'
p38
Nsbtp39
asS'memory'
p40
Nsb.