(dp0
S'METTS MARK'
p1
(dp2
S'to_messages'
p3
I807
sS'relative_bonus'
p4
F0.5650638004119315
sS'deferral_payments'
p5
S'NaN'
p6
sS'expenses'
p7
I94299
sS'relative_long_term_incentive'
p8
F0.0
sS'relative_loan_advances'
p9
F0.0
sS'poi'
p10
I00
sS'deferred_income'
p11
g6
sS'email_address'
p12
S'mark.metts@enron.com'
p13
sS'long_term_incentive'
p14
g6
sS'relative_restricted_stock'
p15
F1.0
sS'relative_director_fees'
p16
F0.0
sS'restricted_stock_deferred'
p17
g6
sS'shared_receipt_with_poi'
p18
I702
sS'loan_advances'
p19
g6
sS'from_messages'
p20
I29
sS'other'
p21
I1740
sS'relative_deferred_income'
p22
F0.0
sS'director_fees'
p23
g6
sS'relative_salary'
p24
F0.34448926237513267
sS'relative_exercised_stock_options'
p25
F0.0
sS'bonus'
p26
I600000
sS'total_stock_value'
p27
I585062
sS'from_poi_to_this_person'
p28
I38
sS'relative_restricted_stock_deferred'
p29
F0.0
sS'from_this_person_to_poi'
p30
I1
sS'emails_to_poi_share'
p31
F0.034482758620689655
sS'restricted_stock'
p32
I585062
sS'emails_from_poi_share'
p33
F0.04708798017348203
sS'salary'
p34
I365788
sS'has_enron_email_address'
p35
I1
sS'total_payments'
p36
I1061827
sS'relative_other'
p37
F0.0016386850211946014
sS'total_payments_to_stock_value_ratio'
p38
F1.814895148043886
sS'exercised_stock_options'
p39
g6
sS'relative_expenses'
p40
F0.08880825219174121
sS'relative_deferral_payments'
p41
F0.0
ssS'BAXTER JOHN C'
p42
(dp43
g3
g6
sg4
F0.21297957898551792
sg5
I1295738
sg7
I11200
sg8
F0.2814977717898964
sg9
F0.0
sg10
I00
sg11
I-1386055
sg12
g6
sg14
I1586055
sg15
F0.3711398141700032
sg16
F0.0
sg17
g6
sg18
g6
sg19
g6
sg20
g6
sg21
I2660303
sg22
F-0.24600117529231003
sg23
g6
sg24
F0.047406059588491506
sg25
F0.6288601858299968
sg26
I1200000
sg27
I10623258
sg28
g6
sg29
F0.0
sg30
g6
sg31
F0.0
sg32
I3942714
sg33
F0.0
sg34
I267102
sg35
I0
sg36
I5634343
sg37
F0.4721585107615919
sg38
F0.5303781071326605
sg39
I6680544
sg40
F0.001987809403864834
sg41
F0.2299714447629475
ssS'ELLIOTT STEVEN'
p44
(dp45
g3
g6
sg4
F1.6530877317274766
sg5
g6
sg7
I78552
sg8
F0.0
sg9
F0.0
sg10
I00
sg11
I-400729
sg12
S'steven.elliott@enron.com'
p46
sg14
g6
sg15
F0.2677739122753036
sg16
F0.0
sg17
g6
sg18
g6
sg19
g6
sg20
g6
sg21
I12961
sg22
F-1.8926862675640572
sg23
g6
sg24
F0.8073727712835046
sg25
F0.7322260877246963
sg26
I350000
sg27
I6678735
sg28
g6
sg29
F0.0
sg30
g6
sg31
F0.0
sg32
I1788391
sg33
F0.0
sg34
I170941
sg35
I1
sg36
I211725
sg37
F0.06121620025977093
sg38
F0.031701507590657874
sg39
I4890344
sg40
F0.371009564293305
sg41
F0.0
ssS'CORDES WILLIAM R'
p47
(dp48
g3
I764
sg4
F0.0
sg5
g6
sg7
g6
sg8
F0.0
sg9
F0.0
sg10
I00
sg11
g6
sg12
S'bill.cordes@enron.com'
p49
sg14
g6
sg15
F0.3721253919099197
sg16
F0.0
sg17
g6
sg18
I58
sg19
g6
sg20
I12
sg21
g6
sg22
F0.0
sg23
g6
sg24
F0.0
sg25
F0.6278746080900803
sg26
g6
sg27
I1038185
sg28
I10
sg29
F0.0
sg30
I0
sg31
F0.0
sg32
I386335
sg33
F0.013089005235602094
sg34
g6
sg35
I1
sg36
g6
sg37
F0.0
sg38
F9.632185369481e-07
sg39
I651850
sg40
F0.0
sg41
F0.0
ssS'HANNON KEVIN P'
p50
(dp51
g3
I1045
sg4
F5.196028848352166
sg5
g6
sg7
I34039
sg8
F5.60135720273519
sg9
F0.0
sg10
I01
sg11
I-3117011
sg12
S'kevin.hannon@enron.com'
p52
sg14
I1617011
sg15
F0.13347759723927077
sg16
F0.0
sg17
g6
sg18
I1035
sg19
g6
sg20
I32
sg21
I11350
sg22
F-10.797386051087356
sg23
g6
sg24
F0.8427716310680957
sg25
F0.8665224027607292
sg26
I1500000
sg27
I6391065
sg28
I32
sg29
F0.0
sg30
I21
sg31
F0.65625
sg32
I853064
sg33
F0.03062200956937799
sg34
I243293
sg35
I1
sg36
I288682
sg37
F0.039316618285864725
sg38
F0.04516977292989933
sg39
I5538001
sg40
F0.11791175064603959
sg41
F0.0
ssS'MORDAUNT KRISTINA M'
p53
(dp54
g3
g6
sg4
F0.5170861163173286
sg5
g6
sg7
I35018
sg8
F0.0
sg9
F0.0
sg10
I00
sg11
g6
sg12
S'kristina.mordaunt@enron.com'
p55
sg14
g6
sg15
F1.0
sg16
F0.0
sg17
g6
sg18
g6
sg19
g6
sg20
g6
sg21
I1411
sg22
F0.0
sg23
g6
sg24
F0.42495409866321304
sg25
F0.0
sg26
I325000
sg27
I208510
sg28
g6
sg29
F0.0
sg30
g6
sg31
F0.0
sg32
I208510
sg33
F0.0
sg34
I267093
sg35
I1
sg36
I628522
sg37
F0.002244949261919233
sg38
F3.0143397710432542
sg39
g6
sg40
F0.05571483575753912
sg41
F0.0
ssS'MEYER ROCKFORD G'
p56
(dp57
g3
I232
sg4
F0.0
sg5
I1848227
sg7
g6
sg8
F0.0
sg9
F0.0
sg10
I00
sg11
g6
sg12
S'rockford.meyer@enron.com'
p58
sg14
g6
sg15
F0.4837295331074316
sg16
F0.0
sg17
g6
sg18
I22
sg19
g6
sg20
I28
sg21
g6
sg22
F0.0
sg23
g6
sg24
F0.0
sg25
F0.5162704668925684
sg26
g6
sg27
I955873
sg28
I0
sg29
F0.0
sg30
I0
sg31
F0.0
sg32
I462384
sg33
F0.0
sg34
g6
sg35
I1
sg36
I1848227
sg37
F0.0
sg38
F1.9335477270016759
sg39
I493489
sg40
F0.0
sg41
F1.0
ssS'MCMAHON JEFFREY'
p59
(dp60
g3
I2355
sg4
F0.6341817628350461
sg5
g6
sg7
I137108
sg8
F0.16948800311041762
sg9
F0.0
sg10
I00
sg11
g6
sg12
S'jeffrey.mcmahon@enron.com'
p61
sg14
I694862
sg15
F0.3360491443932273
sg16
F0.0
sg17
g6
sg18
I2228
sg19
g6
sg20
I48
sg21
I297353
sg22
F0.0
sg23
g6
sg24
F0.09035821756873738
sg25
F0.6639508556067727
sg26
I2600000
sg27
I1662855
sg28
I58
sg29
F0.0
sg30
I26
sg31
F0.5416666666666666
sg32
I558801
sg33
F0.024628450106157114
sg34
I370448
sg35
I1
sg36
I4099771
sg37
F0.07252917297088057
sg38
F2.4655003199314915
sg39
I1104054
sg40
F0.033442843514918275
sg41
F0.0
ssS'HORTON STANLEY C'
p62
(dp63
g3
I2350
sg4
F0.0
sg5
I3131860
sg7
g6
sg8
F0.0
sg9
F0.0
sg10
I00
sg11
g6
sg12
S'stanley.horton@enron.com'
p64
sg14
g6
sg15
F0.28195924619741786
sg16
F0.0
sg17
g6
sg18
I1074
sg19
g6
sg20
I1073
sg21
g6
sg22
F0.0
sg23
g6
sg24
F0.0
sg25
F0.7180407538025821
sg26
g6
sg27
I7256648
sg28
I44
sg29
F0.0
sg30
I15
sg31
F0.013979496738117428
sg32
I2046079
sg33
F0.01872340425531915
sg34
g6
sg35
I1
sg36
I3131860
sg37
F0.0
sg38
F0.4315850194766207
sg39
I5210569
sg40
F0.0
sg41
F1.0
ssS'PIPER GREGORY F'
p65
(dp66
g3
I1238
sg4
F0.23019873632403695
sg5
I1130036
sg7
I43057
sg8
F0.0
sg9
F0.0
sg10
I00
sg11
I-33333
sg12
S'greg.piper@enron.com'
p67
sg14
g6
sg15
F0.46524895204989264
sg16
F0.0
sg17
I-409554
sg18
I742
sg19
g6
sg20
I222
sg21
I778
sg22
F-0.019183036194722808
sg23
g6
sg24
F0.11342524785210191
sg25
F1.0
sg26
I400000
sg27
I880290
sg28
I61
sg29
F-0.46524895204989264
sg30
I48
sg31
F0.21621621621621623
sg32
I409554
sg33
F0.049273021001615507
sg34
I197091
sg35
I1
sg36
I1737629
sg37
F0.00044773654215025184
sg38
F1.9739268037501236
sg39
I880290
sg40
F0.024779167474760146
sg41
F0.6503321480016735
ssS'HUMPHREY GENE E'
p68
(dp69
g3
I128
sg4
F0.0
sg5
I2964506
sg7
I4994
sg8
F0.0
sg9
F0.0
sg10
I00
sg11
g6
sg12
S'gene.humphrey@enron.com'
p70
sg14
g6
sg15
F0.0
sg16
F0.0
sg17
g6
sg18
I119
sg19
g6
sg20
I17
sg21
g6
sg22
F0.0
sg23
g6
sg24
F0.04216598542556925
sg25
F1.0
sg26
g6
sg27
I2282768
sg28
I10
sg29
F0.0
sg30
I17
sg31
F1.0
sg32
g6
sg33
F0.078125
sg34
I130724
sg35
I1
sg36
I3100224
sg37
F0.0
sg38
F1.3580984322110559
sg39
I2282768
sg40
F0.0016108513449350757
sg41
F0.9562231632294956
ssS'UMANOFF ADAM S'
p71
(dp72
g3
I111
sg4
F0.6977242027809893
sg5
g6
sg7
I53122
sg8
F0.0
sg9
F0.0
sg10
I00
sg11
g6
sg12
S'adam.umanoff@enron.com'
p73
sg14
g6
sg15
F0.0
sg16
F0.0
sg17
g6
sg18
I41
sg19
g6
sg20
I18
sg21
g6
sg22
F0.0
sg23
g6
sg24
F0.2552843485976075
sg25
F0.0
sg26
I788750
sg27
g6
sg28
I12
sg29
F0.0
sg30
I0
sg31
F0.0
sg32
g6
sg33
F0.10810810810810811
sg34
I288589
sg35
I1
sg36
I1130461
sg37
F0.0
sg38
F1130462.0
sg39
g6
sg40
F0.04699144862140313
sg41
F0.0
ssS'BLACHMAN JEREMY M'
p74
(dp75
g3
I2475
sg4
F0.4218707735372872
sg5
g6
sg7
I84208
sg8
F0.4128422426650321
sg9
F0.0
sg10
I00
sg11
g6
sg12
S'jeremy.blachman@enron.com'
p76
sg14
I831809
sg15
F0.19808268210747793
sg16
F0.0
sg17
g6
sg18
I2326
sg19
g6
sg20
I14
sg21
I272
sg22
F0.0
sg23
g6
sg24
F0.12335799209364538
sg25
F0.8019173178925221
sg26
I850000
sg27
I954354
sg28
I25
sg29
F0.0
sg30
I2
sg31
F0.14285714285714285
sg32
I189041
sg33
F0.010101010101010102
sg34
I248546
sg35
I1
sg36
I2014835
sg37
F0.0001349986475319319
sg38
F2.111201806455669
sg39
I765313
sg40
F0.04179399305650339
sg41
F0.0
ssS'SUNDE MARTIN'
p77
(dp78
g3
I2647
sg4
F0.4530571324460749
sg5
g6
sg7
g6
sg8
F0.30837074830152117
sg9
F0.0
sg10
I00
sg11
g6
sg12
S'marty.sunde@enron.com'
p79
sg14
I476451
sg15
F1.0
sg16
F0.0
sg17
g6
sg18
I2565
sg19
g6
sg20
I38
sg21
I111122
sg22
F0.0
sg23
g6
sg24
F0.16665124115001434
sg25
F0.0
sg26
I700000
sg27
I698920
sg28
I37
sg29
F0.0
sg30
I13
sg31
F0.34210526315789475
sg32
I698920
sg33
F0.013978088401964487
sg34
I257486
sg35
I1
sg36
I1545059
sg37
F0.07192087810238962
sg38
F2.2106361090881514
sg39
g6
sg40
F0.0
sg41
F0.0
ssS'GIBBS DANA R'
p80
(dp81
g3
I169
sg4
F0.0
sg5
I504610
sg7
g6
sg8
F0.47791152193121317
sg9
F0.0
sg10
I00
sg11
g6
sg12
S'dana.gibbs@enron.com'
p82
sg14
I461912
sg15
F0.0
sg16
F0.0
sg17
g6
sg18
I23
sg19
g6
sg20
I12
sg21
g6
sg22
F0.0
sg23
g6
sg24
F0.0
sg25
F1.0
sg26
g6
sg27
I2218275
sg28
I0
sg29
F0.0
sg30
I0
sg31
F0.0
sg32
g6
sg33
F0.0
sg34
g6
sg35
I1
sg36
I966522
sg37
F0.0
sg38
F0.43570908218814974
sg39
I2218275
sg40
F0.0
sg41
F0.5220884780687869
ssS'LOWRY CHARLES P'
p83
(dp84
g3
g6
sg4
F0.0
sg5
g6
sg7
g6
sg8
F0.0
sg9
F0.0
sg10
I00
sg11
g6
sg12
g6
sg14
g6
sg15
F0.41290686584006125
sg16
F0.0
sg17
I-153686
sg18
g6
sg19
g6
sg20
g6
sg21
g6
sg22
F0.0
sg23
g6
sg24
F0.0
sg25
F1.0
sg26
g6
sg27
I372205
sg28
g6
sg29
F-0.41290686584006125
sg30
g6
sg31
F0.0
sg32
I153686
sg33
F0.0
sg34
g6
sg35
I0
sg36
g6
sg37
F0.0
sg38
F2.686684255492926e-06
sg39
I372205
sg40
F0.0
sg41
F0.0
ssS'COLWELL WESLEY'
p85
(dp86
g3
I1758
sg4
F0.8051832328643588
sg5
I27610
sg7
I16514
sg8
F0.0
sg9
F0.0
sg10
I01
sg11
I-144062
sg12
S'wes.colwell@enron.com'
p87
sg14
g6
sg15
F1.0
sg16
F0.0
sg17
g6
sg18
I1132
sg19
g6
sg20
I40
sg21
I101740
sg22
F-0.09666358907742105
sg23
g6
sg24
F0.19360765031428986
sg25
F0.0
sg26
I1200000
sg27
I698242
sg28
I240
sg29
F0.0
sg30
I11
sg31
F0.275
sg32
I698242
sg33
F0.13651877133105803
sg34
I288542
sg35
I1
sg36
I1490344
sg37
F0.06826611842634989
sg38
F2.134421684141481
sg39
g6
sg40
F0.011080663256268351
sg41
F0.01852592421615412
ssS'MULLER MARK S'
p88
(dp89
g3
I136
sg4
F0.3435277804670104
sg5
I842924
sg7
g6
sg8
F0.5388842217690432
sg9
F0.0
sg10
I00
sg11
I-719000
sg12
S's..muller@enron.com'
p90
sg14
I1725545
sg15
F0.2544577823450363
sg16
F0.0
sg17
g6
sg18
I114
sg19
g6
sg20
I16
sg21
I947
sg22
F-0.22454224923252772
sg23
g6
sg24
F0.07859103642331366
sg25
F0.7455422176549636
sg26
I1100000
sg27
I1416848
sg28
I12
sg29
F0.0
sg30
I0
sg31
F0.0
sg32
I360528
sg33
F0.08823529411764706
sg34
I251654
sg35
I1
sg36
I3202070
sg37
F0.0002957461891838717
sg38
F2.2599945371736863
sg39
I1056320
sg40
F0.0
sg41
F0.2632434643839766
ssS'JACKSON CHARLENE R'
p91
(dp92
g3
I258
sg4
F0.453577273238578
sg5
g6
sg7
I10181
sg8
F0.0
sg9
F0.0
sg10
I00
sg11
g6
sg12
S'charlene.jackson@enron.com'
p93
sg14
g6
sg15
F0.7449992076997802
sg16
F0.0
sg17
g6
sg18
I117
sg19
g6
sg20
I56
sg21
I2435
sg22
F0.0
sg23
g6
sg24
F0.5235334032447104
sg25
F0.25500079230021977
sg26
I250000
sg27
I725735
sg28
I25
sg29
F0.0
sg30
I19
sg31
F0.3392857142857143
sg32
I540672
sg33
F0.09689922480620156
sg34
I288558
sg35
I1
sg36
I551174
sg37
F0.00441784264134375
sg38
F0.7594703859254605
sg39
I185063
sg40
F0.01847148087536785
sg41
F0.0
ssS'WESTFAHL RICHARD K'
p94
(dp95
g3
g6
sg4
F0.0
sg5
g6
sg7
I51870
sg8
F0.336149107441595
sg9
F0.0
sg10
I00
sg11
I-10800
sg12
S'dick.westfahl@enron.com'
p96
sg14
I256191
sg15
F1.0
sg16
F0.0
sg17
g6
sg18
g6
sg19
g6
sg20
g6
sg21
I401130
sg22
F-0.014170717786218976
sg23
g6
sg24
F0.08363872542266133
sg25
F0.0
sg26
g6
sg27
I384930
sg28
g6
sg29
F0.0
sg30
g6
sg31
F0.0
sg32
I384930
sg33
F0.0
sg34
I63744
sg35
I1
sg36
I762135
sg37
F0.5263240764431498
sg38
F1.9799288703689752
sg39
g6
sg40
F0.06805880847881281
sg41
F0.0
ssS'WALTERS GARETH W'
p97
(dp98
g3
g6
sg4
F0.0
sg5
I53625
sg7
I33785
sg8
F0.0
sg9
F0.0
sg10
I00
sg11
g6
sg12
g6
sg14
g6
sg15
F0.0
sg16
F0.0
sg17
g6
sg18
g6
sg19
g6
sg20
g6
sg21
g6
sg22
F0.0
sg23
g6
sg24
F0.0
sg25
F1.0
sg26
g6
sg27
I1030329
sg28
g6
sg29
F0.0
sg30
g6
sg31
F0.0
sg32
g6
sg33
F0.0
sg34
g6
sg35
I0
sg36
I87410
sg37
F0.0
sg38
F0.08483786747935128
sg39
I1030329
sg40
F0.3865118407504862
sg41
F0.6134881592495138
ssS'WALLS JR ROBERT H'
p99
(dp100
g3
I671
sg4
F0.47254250102847484
sg5
g6
sg7
I50936
sg8
F0.30062097643958685
sg9
F0.0
sg10
I00
sg11
g6
sg12
S'rob.walls@enron.com'
p101
sg14
I540751
sg15
F0.2631723664209356
sg16
F0.0
sg17
g6
sg18
I215
sg19
g6
sg20
I146
sg21
I2
sg22
F0.0
sg23
g6
sg24
F0.1985184402761872
sg25
F0.7368276335790643
sg26
I850000
sg27
I5898997
sg28
I17
sg29
F0.0
sg30
I0
sg31
F0.0
sg32
I1552453
sg33
F0.02533532041728763
sg34
I357091
sg35
I1
sg36
I1798780
sg37
F1.1118647083022938e-06
sg38
F0.3049299219969222
sg39
I4346544
sg40
F0.028316970391042817
sg41
F0.0
ssS'KITCHEN LOUISE'
p102
(dp103
g3
I8305
sg4
F0.8930780973748977
sg5
g6
sg7
I5774
sg8
F0.0
sg9
F0.0
sg10
I00
sg11
g6
sg12
S'louise.kitchen@enron.com'
p104
sg14
g6
sg15
F0.8518815008142295
sg16
F0.0
sg17
g6
sg18
I3669
sg19
g6
sg20
I1728
sg21
I93925
sg22
F0.0
sg23
g6
sg24
F0.07819964674439903
sg25
F0.14811849918577044
sg26
I3100000
sg27
I547143
sg28
I251
sg29
F0.0
sg30
I194
sg31
F0.11226851851851852
sg32
I466101
sg33
F0.030222757375075255
sg34
I271442
sg35
I1
sg36
I3471141
sg37
F0.02705882590191525
sg38
F6.344110508385361
sg39
I81042
sg40
F0.0016634299787879547
sg41
F0.0
ssS'CHAN RONNIE'
p105
(dp106
g3
g6
sg4
F0.0
sg5
g6
sg7
g6
sg8
F0.0
sg9
F0.0
sg10
I00
sg11
I-98784
sg12
g6
sg14
g6
sg15
F0.0
sg16
F0.0
sg17
I-32460
sg18
g6
sg19
g6
sg20
g6
sg21
g6
sg22
F0.0
sg23
I98784
sg24
F0.0
sg25
F0.0
sg26
g6
sg27
g6
sg28
g6
sg29
F0.0
sg30
g6
sg31
F0.0
sg32
I32460
sg33
F0.0
sg34
g6
sg35
I0
sg36
g6
sg37
F0.0
sg38
F1.0
sg39
g6
sg40
F0.0
sg41
F0.0
ssS'BELFER ROBERT'
p107
(dp108
g3
g6
sg4
F0.0
sg5
I-102500
sg7
g6
sg8
F0.0
sg9
F0.0
sg10
I00
sg11
g6
sg12
g6
sg14
g6
sg15
F-0.0
sg16
F0.03204878048780488
sg17
I44093
sg18
g6
sg19
g6
sg20
g6
sg21
g6
sg22
F0.0
sg23
I3285
sg24
F0.0
sg25
F-0.07450162157258522
sg26
g6
sg27
I-44093
sg28
g6
sg29
F-1.0
sg30
g6
sg31
F0.0
sg32
g6
sg33
F0.0
sg34
g6
sg35
I0
sg36
I102500
sg37
F0.0
sg38
F-2.32470742991926
sg39
I3285
sg40
F0.0
sg41
F-1.0
ssS'SHANKMAN JEFFREY A'
p109
(dp110
g3
I3221
sg4
F0.6581757605714545
sg5
g6
sg7
I178979
sg8
F0.18245356076377348
sg9
F0.0
sg10
I00
sg11
g6
sg12
S'jeffrey.shankman@enron.com'
p111
sg14
I554422
sg15
F0.3041150366668517
sg16
F0.0
sg17
g6
sg18
I1730
sg19
g6
sg20
I2681
sg21
I1191
sg22
F0.0
sg23
g6
sg24
F0.10007891527369252
sg25
F0.6958849633331483
sg26
I2000000
sg27
I2072035
sg28
I94
sg29
F0.0
sg30
I83
sg31
F0.030958597538232
sg32
I630137
sg33
F0.029183483390251473
sg34
I304110
sg35
I1
sg36
I3038702
sg37
F0.0003919436654203012
sg38
F1.46653002167916
sg39
I1441898
sg40
F0.05889981972565918
sg41
F0.0
ssS'WODRASKA JOHN'
p112
(dp113
g3
g6
sg4
F0.0
sg5
g6
sg7
g6
sg8
F0.0
sg9
F0.0
sg10
I00
sg11
g6
sg12
S'john.wodraska@enron.com'
p114
sg14
g6
sg15
F0.0
sg16
F0.0
sg17
g6
sg18
g6
sg19
g6
sg20
g6
sg21
I189583
sg22
F0.0
sg23
g6
sg24
F0.0
sg25
F0.0
sg26
g6
sg27
g6
sg28
g6
sg29
F0.0
sg30
g6
sg31
F0.0
sg32
g6
sg33
F0.0
sg34
g6
sg35
I1
sg36
I189583
sg37
F1.0
sg38
F189584.0
sg39
g6
sg40
F0.0
sg41
F0.0
ssS'BERGSIEKER RICHARD P'
p115
(dp116
g3
I383
sg4
F0.4039751151329078
sg5
g6
sg7
I59175
sg8
F0.29126605801082656
sg9
F0.0
sg10
I00
sg11
I-485813
sg12
S'rick.bergsieker@enron.com'
p117
sg14
I180250
sg15
F1.0
sg16
F0.0
sg17
g6
sg18
I233
sg19
g6
sg20
I59
sg21
I427316
sg22
F-0.7850254504322534
sg23
g6
sg24
F0.3036632463440252
sg25
F0.0
sg26
I250000
sg27
I659249
sg28
I4
sg29
F0.0
sg30
I0
sg31
F0.0
sg32
I659249
sg33
F0.010443864229765013
sg34
I187922
sg35
I1
sg36
I618850
sg37
F0.6905001211925346
sg38
F0.938719757299962
sg39
g6
sg40
F0.09562090975195928
sg41
F0.0
ssS'URQUHART JOHN A'
p118
(dp119
g3
g6
sg4
F0.0
sg5
g6
sg7
I228656
sg8
F0.0
sg9
F0.0
sg10
I00
sg11
I-36666
sg12
g6
sg14
g6
sg15
F0.0
sg16
F0.16035441886501994
sg17
g6
sg18
g6
sg19
g6
sg20
g6
sg21
g6
sg22
F-0.16035441886501994
sg23
I36666
sg24
F0.0
sg25
F0.0
sg26
g6
sg27
g6
sg28
g6
sg29
F0.0
sg30
g6
sg31
F0.0
sg32
g6
sg33
F0.0
sg34
g6
sg35
I0
sg36
I228656
sg37
F0.0
sg38
F228657.0
sg39
g6
sg40
F1.0
sg41
F0.0
ssS'BIBI PHILIPPE A'
p120
(dp121
g3
I1607
sg4
F0.4883783056496091
sg5
g6
sg7
I38559
sg8
F0.18056371554307912
sg9
F0.0
sg10
I00
sg11
g6
sg12
S'philippe.bibi@enron.com'
p122
sg14
I369721
sg15
F0.20505408348772328
sg16
F0.0
sg17
g6
sg18
I1336
sg19
g6
sg20
I40
sg21
I425688
sg22
F0.0
sg23
g6
sg24
F0.10432981554439774
sg25
F0.7949459165122768
sg26
I1000000
sg27
I1843816
sg28
I23
sg29
F0.0
sg30
I8
sg31
F0.2
sg32
I378082
sg33
F0.01431238332296204
sg34
I213625
sg35
I1
sg36
I2047593
sg37
F0.2078967841753708
sg38
F1.1105191024922756
sg39
I1465734
sg40
F0.018831379087543277
sg41
F0.0
ssS'RIEKER PAULA H'
p123
(dp124
g3
I1328
sg4
F0.6368847238649804
sg5
I214678
sg7
I33271
sg8
F0.0
sg9
F0.0
sg10
I01
sg11
I-100000
sg12
S'paula.rieker@enron.com'
p125
sg14
g6
sg15
F0.14781954330817812
sg16
F0.0
sg17
g6
sg18
I1258
sg19
g6
sg20
I82
sg21
I1950
sg22
F-0.09098353198071149
sg23
g6
sg24
F0.22673187153125285
sg25
F0.8521804566918219
sg26
I700000
sg27
I1918887
sg28
I35
sg29
F0.0
sg30
I48
sg31
F0.5853658536585366
sg32
I283649
sg33
F0.02635542168674699
sg34
I249201
sg35
I1
sg36
I1099100
sg37
F0.0017741788736238742
sg38
F0.5727801726833458
sg39
I1635238
sg40
F0.03027113092530252
sg41
F0.19532162678555182
ssS'WHALEY DAVID A'
p126
(dp127
g3
g6
sg4
F0.0
sg5
g6
sg7
g6
sg8
F0.0
sg9
F0.0
sg10
I00
sg11
g6
sg12
g6
sg14
g6
sg15
F0.0
sg16
F0.0
sg17
g6
sg18
g6
sg19
g6
sg20
g6
sg21
g6
sg22
F0.0
sg23
g6
sg24
F0.0
sg25
F1.0
sg26
g6
sg27
I98718
sg28
g6
sg29
F0.0
sg30
g6
sg31
F0.0
sg32
g6
sg33
F0.0
sg34
g6
sg35
I0
sg36
g6
sg37
F0.0
sg38
F1.0129762254479887e-05
sg39
I98718
sg40
F0.0
sg41
F0.0
ssS'BECK SALLY W'
p128
(dp129
g3
I7315
sg4
F0.7223435300721931
sg5
g6
sg7
I37172
sg8
F0.0
sg9
F0.0
sg10
I00
sg11
g6
sg12
S'sally.beck@enron.com'
p130
sg14
g6
sg15
F1.0
sg16
F0.0
sg17
g6
sg18
I2639
sg19
g6
sg20
I4343
sg21
I566
sg22
F0.0
sg23
g6
sg24
F0.23871389830228631
sg25
F0.0
sg26
I700000
sg27
I126027
sg28
I144
sg29
F0.0
sg30
I386
sg31
F0.08887865530739121
sg32
I126027
sg33
F0.01968557758031442
sg34
I231330
sg35
I1
sg36
I969068
sg37
F0.0005840663400298018
sg38
F7.689315072840956
sg39
g6
sg40
F0.0383585052854908
sg41
F0.0
ssS'HAUG DAVID L'
p131
(dp132
g3
I573
sg4
F0.0
sg5
g6
sg7
I475
sg8
F0.0
sg9
F0.0
sg10
I00
sg11
g6
sg12
S'david.haug@enron.com'
p133
sg14
g6
sg15
F1.0
sg16
F0.0
sg17
g6
sg18
I471
sg19
g6
sg20
I19
sg21
g6
sg22
F0.0
sg23
g6
sg24
F0.0
sg25
F0.0
sg26
g6
sg27
I2217299
sg28
I4
sg29
F0.0
sg30
I7
sg31
F0.3684210526315789
sg32
I2217299
sg33
F0.006980802792321117
sg34
g6
sg35
I1
sg36
I475
sg37
F0.0
sg38
F0.00021467550624633562
sg39
g6
sg40
F1.0
sg41
F0.0
ssS'ECHOLS JOHN B'
p134
(dp135
g3
g6
sg4
F0.07428526432925606
sg5
g6
sg7
I21530
sg8
F0.8300538865307444
sg9
F0.0
sg10
I00
sg11
g6
sg12
S'john.echols@enron.com'
p136
sg14
I2234774
sg15
F0.40389180338592645
sg16
F0.0
sg17
g6
sg18
g6
sg19
g6
sg20
g6
sg21
I53775
sg22
F0.0
sg23
g6
sg24
F0.06769058998842635
sg25
F0.5961081966140735
sg26
I200000
sg27
I1008941
sg28
g6
sg29
F0.0
sg30
g6
sg31
F0.0
sg32
I407503
sg33
F0.0
sg34
I182245
sg35
I1
sg36
I2692324
sg37
F0.019973450446528724
sg38
F2.668463598502193
sg39
I601438
sg40
F0.007996808705044415
sg41
F0.0
ssS'MENDELSOHN JOHN'
p137
(dp138
g3
g6
sg4
F0.0
sg5
g6
sg7
I148
sg8
F0.0
sg9
F0.0
sg10
I00
sg11
I-103750
sg12
g6
sg14
g6
sg15
F0.0
sg16
F701.0135135135135
sg17
g6
sg18
g6
sg19
g6
sg20
g6
sg21
g6
sg22
F-701.0135135135135
sg23
I103750
sg24
F0.0
sg25
F0.0
sg26
g6
sg27
g6
sg28
g6
sg29
F0.0
sg30
g6
sg31
F0.0
sg32
g6
sg33
F0.0
sg34
g6
sg35
I0
sg36
I148
sg37
F0.0
sg38
F149.0
sg39
g6
sg40
F1.0
sg41
F0.0
ssS'HICKERSON GARY J'
p139
(dp140
g3
I1320
sg4
F0.8166025873812804
sg5
g6
sg7
I98849
sg8
F0.03325157700370257
sg9
F0.0
sg10
I00
sg11
g6
sg12
S'gary.hickerson@enron.com'
p141
sg14
I69223
sg15
F1.0
sg16
F0.0
sg17
g6
sg18
I900
sg19
g6
sg20
I27
sg21
I1936
sg22
F0.0
sg23
g6
sg24
F0.10173331104488624
sg25
F0.0
sg26
I1700000
sg27
I441096
sg28
I40
sg29
F0.0
sg30
I1
sg31
F0.037037037037037035
sg32
I441096
sg33
F0.030303030303030304
sg34
I211788
sg35
I1
sg36
I2081796
sg37
F0.0009299662406883287
sg38
F4.719590022149323
sg39
g6
sg40
F0.04748255832944246
sg41
F0.0
ssS'CLINE KENNETH W'
p142
(dp143
g3
g6
sg4
F0.0
sg5
g6
sg7
g6
sg8
F0.0
sg9
F0.0
sg10
I00
sg11
g6
sg12
g6
sg14
g6
sg15
F3.4935256809379585
sg16
F0.0
sg17
I-472568
sg18
g6
sg19
g6
sg20
g6
sg21
g6
sg22
F0.0
sg23
g6
sg24
F0.0
sg25
F0.0
sg26
g6
sg27
I189518
sg28
g6
sg29
F-2.4935256809379585
sg30
g6
sg31
F0.0
sg32
I662086
sg33
F0.0
sg34
g6
sg35
I0
sg36
g6
sg37
F0.0
sg38
F5.276515811079628e-06
sg39
g6
sg40
F0.0
sg41
F0.0
ssS'LEWIS RICHARD'
p144
(dp145
g3
I952
sg4
F0.0
sg5
g6
sg7
g6
sg8
F0.0
sg9
F0.0
sg10
I00
sg11
g6
sg12
S'richard.lewis@enron.com'
p146
sg14
g6
sg15
F0.0
sg16
F0.0
sg17
g6
sg18
I739
sg19
g6
sg20
I26
sg21
g6
sg22
F0.0
sg23
g6
sg24
F0.0
sg25
F1.0
sg26
g6
sg27
I850477
sg28
I10
sg29
F0.0
sg30
I0
sg31
F0.0
sg32
g6
sg33
F0.01050420168067227
sg34
g6
sg35
I1
sg36
g6
sg37
F0.0
sg38
F1.1758093683787236e-06
sg39
I850477
sg40
F0.0
sg41
F0.0
ssS'HAYES ROBERT E'
p147
(dp148
g3
I504
sg4
F0.0
sg5
I7961
sg7
g6
sg8
F0.0
sg9
F0.0
sg10
I00
sg11
g6
sg12
S'robert.hayes@enron.com'
p149
sg14
g6
sg15
F1.0
sg16
F0.0
sg17
g6
sg18
I50
sg19
g6
sg20
I12
sg21
g6
sg22
F0.0
sg23
g6
sg24
F0.0
sg25
F0.0
sg26
g6
sg27
I151418
sg28
I16
sg29
F0.0
sg30
I0
sg31
F0.0
sg32
I151418
sg33
F0.031746031746031744
sg34
g6
sg35
I1
sg36
I7961
sg37
F0.0
sg38
F0.05258256889822281
sg39
g6
sg40
F0.0
sg41
F1.0
ssS'MCCARTY DANNY J'
p150
(dp151
g3
I1433
sg4
F0.0
sg5
g6
sg7
g6
sg8
F0.0
sg9
F0.0
sg10
I00
sg11
g6
sg12
S'danny.mccarty@enron.com'
p152
sg14
g6
sg15
F0.12459103660280052
sg16
F0.0
sg17
g6
sg18
I508
sg19
g6
sg20
I215
sg21
g6
sg22
F0.0
sg23
g6
sg24
F0.0
sg25
F0.8754089633971995
sg26
g6
sg27
I758931
sg28
I25
sg29
F0.0
sg30
I2
sg31
F0.009302325581395349
sg32
I94556
sg33
F0.017445917655268667
sg34
g6
sg35
I1
sg36
g6
sg37
F0.0
sg38
F1.3176411061860615e-06
sg39
I664375
sg40
F0.0
sg41
F0.0
ssS'KOPPER MICHAEL J'
p153
(dp154
g3
g6
sg4
F0.30158952760524343
sg5
g6
sg7
I118134
sg8
F0.22719907773922457
sg9
F0.0
sg10
I01
sg11
g6
sg12
S'michael.kopper@enron.com'
p155
sg14
I602671
sg15
F1.0
sg16
F0.0
sg17
g6
sg18
g6
sg19
g6
sg20
g6
sg21
I907502
sg22
F0.0
sg23
g6
sg24
F0.08456004873686766
sg25
F0.0
sg26
I800000
sg27
I985032
sg28
g6
sg29
F0.0
sg30
g6
sg31
F0.0
sg32
I985032
sg33
F0.0
sg34
I224305
sg35
I1
sg36
I2652612
sg37
F0.34211637435101705
sg38
F2.692917902242869
sg39
g6
sg40
F0.04453497156764728
sg41
F0.0
ssS'LEFF DANIEL P'
p156
(dp157
g3
I2822
sg4
F0.3753432514034084
sg5
g6
sg7
g6
sg8
F0.5207508516538374
sg9
F0.0
sg10
I00
sg11
g6
sg12
S'dan.leff@enron.com'
p158
sg14
I1387399
sg15
F1.0
sg16
F0.0
sg17
g6
sg18
I2672
sg19
g6
sg20
I63
sg21
I3083
sg22
F0.0
sg23
g6
sg24
F0.10274871369867744
sg25
F0.0
sg26
I1000000
sg27
I360528
sg28
I67
sg29
F0.0
sg30
I14
sg31
F0.2222222222222222
sg32
I360528
sg33
F0.02374202693125443
sg34
I273746
sg35
I1
sg36
I2664228
sg37
F0.001157183244076708
sg38
F7.389777243994242
sg39
g6
sg40
F0.0
sg41
F0.0
ssS'LAVORATO JOHN J'
p159
(dp160
g3
I7259
sg4
F0.767330372269371
sg5
g6
sg7
I49537
sg8
F0.19522611163870404
sg9
F0.0
sg10
I00
sg11
g6
sg12
S'john.lavorato@enron.com'
p161
sg14
I2035380
sg15
F0.19510758747965995
sg16
F0.0
sg17
g6
sg18
I3962
sg19
g6
sg20
I2585
sg21
I1552
sg22
F0.0
sg23
g6
sg24
F0.03254324841831629
sg25
F0.80489241252034
sg26
I8000000
sg27
I5167144
sg28
I528
sg29
F0.0
sg30
I411
sg31
F0.15899419729206962
sg32
I1008149
sg33
F0.07273729163796666
sg34
I339288
sg35
I1
sg36
I10425757
sg37
F0.00014886209222025797
sg38
F2.017701845022735
sg39
I4158995
sg40
F0.004751405581388478
sg41
F0.0
ssS'BERBERIAN DAVID'
p162
(dp163
g3
g6
sg4
F0.0
sg5
g6
sg7
I11892
sg8
F0.0
sg9
F0.0
sg10
I00
sg11
g6
sg12
S'david.berberian@enron.com'
p164
sg14
g6
sg15
F0.34857812911049657
sg16
F0.0
sg17
g6
sg18
g6
sg19
g6
sg20
g6
sg21
g6
sg22
F0.0
sg23
g6
sg24
F0.9479503138212663
sg25
F0.6514218708895034
sg26
g6
sg27
I2493616
sg28
g6
sg29
F0.0
sg30
g6
sg31
F0.0
sg32
I869220
sg33
F0.0
sg34
I216582
sg35
I1
sg36
I228474
sg37
F0.0
sg38
F0.09162393422887316
sg39
I1624396
sg40
F0.052049686178733685
sg41
F0.0
ssS'DETMERING TIMOTHY J'
p165
(dp166
g3
g6
sg4
F0.3528191913716199
sg5
I875307
sg7
I52255
sg8
F0.34506298030106686
sg9
F0.0
sg10
I00
sg11
I-775241
sg12
S'timothy.detmering@enron.com'
p167
sg14
I415657
sg15
F0.15536931699102258
sg16
F0.0
sg17
I-315068
sg18
g6
sg19
g6
sg20
g6
sg21
I1105
sg22
F-0.643576241736767
sg23
g6
sg24
F0.17474927007935526
sg25
F1.0
sg26
I425000
sg27
I2027865
sg28
g6
sg29
F-0.15536931699102258
sg30
g6
sg31
F0.0
sg32
I315068
sg33
F0.0
sg34
I210500
sg35
I1
sg36
I1204583
sg37
F0.0009173298975662117
sg38
F0.5940155809111647
sg39
I2027865
sg40
F0.0433801572826447
sg41
F0.7266473128045141
ssS'WAKEHAM JOHN'
p168
(dp169
g3
g6
sg4
F0.0
sg5
g6
sg7
I103773
sg8
F0.0
sg9
F0.0
sg10
I00
sg11
g6
sg12
g6
sg14
g6
sg15
F0.0
sg16
F0.5129651618474593
sg17
g6
sg18
g6
sg19
g6
sg20
g6
sg21
g6
sg22
F0.0
sg23
I109298
sg24
F0.0
sg25
F0.0
sg26
g6
sg27
g6
sg28
g6
sg29
F0.0
sg30
g6
sg31
F0.0
sg32
g6
sg33
F0.0
sg34
g6
sg35
I0
sg36
I213071
sg37
F0.0
sg38
F213072.0
sg39
g6
sg40
F0.4870348381525407
sg41
F0.0
ssS'POWERS WILLIAM'
p170
(dp171
g3
I653
sg4
F0.0
sg5
g6
sg7
g6
sg8
F0.0
sg9
F0.0
sg10
I00
sg11
I-17500
sg12
S'ken.powers@enron.com'
p172
sg14
g6
sg15
F0.0
sg16
F0.0
sg17
g6
sg18
I12
sg19
g6
sg20
I26
sg21
g6
sg22
F0.0
sg23
I17500
sg24
F0.0
sg25
F0.0
sg26
g6
sg27
g6
sg28
I0
sg29
F0.0
sg30
I0
sg31
F0.0
sg32
g6
sg33
F0.0
sg34
g6
sg35
I1
sg36
g6
sg37
F0.0
sg38
F1.0
sg39
g6
sg40
F0.0
sg41
F0.0
ssS'GOLD JOSEPH'
p173
(dp174
g3
g6
sg4
F0.34932903208377564
sg5
g6
sg7
g6
sg8
F0.1419696474990603
sg9
F0.0
sg10
I00
sg11
g6
sg12
S'joe.gold@enron.com'
p175
sg14
I304805
sg15
F0.5026099262657373
sg16
F0.0
sg17
g6
sg18
g6
sg19
g6
sg20
g6
sg21
I819288
sg22
F0.0
sg23
g6
sg24
F0.12709987503336093
sg25
F0.4973900737342627
sg26
I750000
sg27
I877611
sg28
g6
sg29
F0.0
sg30
g6
sg31
F0.0
sg32
I441096
sg33
F0.0
sg34
I272880
sg35
I1
sg36
I2146973
sg37
F0.38160144538380314
sg38
F2.4463817723549814
sg39
I436515
sg40
F0.0
sg41
F0.0
ssS'BANNANTINE JAMES M'
p176
(dp177
g3
I566
sg4
F0.0
sg5
g6
sg7
I56301
sg8
F0.0
sg9
F0.0
sg10
I00
sg11
I-5104
sg12
S'james.bannantine@enron.com'
p178
sg14
g6
sg15
F0.33518763372541976
sg16
F0.0
sg17
I-560222
sg18
I465
sg19
g6
sg20
I29
sg21
I864523
sg22
F-0.005570854303168424
sg23
g6
sg24
F0.0005206303884426602
sg25
F0.7716538631639595
sg26
g6
sg27
I5243487
sg28
I39
sg29
F-0.10684149688937915
sg30
I0
sg31
F0.0
sg32
I1757552
sg33
F0.06890459363957598
sg34
I477
sg35
I1
sg36
I916197
sg37
F0.943599466053698
sg38
F0.1747306373162292
sg39
I4046157
sg40
F0.0614507578610277
sg41
F0.0
ssS'DUNCAN JOHN H'
p179
(dp180
g3
g6
sg4
F0.0
sg5
g6
sg7
g6
sg8
F0.0
sg9
F0.0
sg10
I00
sg11
I-25000
sg12
g6
sg14
g6
sg15
F0.0
sg16
F1.3226139472461673
sg17
g6
sg18
g6
sg19
g6
sg20
g6
sg21
g6
sg22
F-0.3226139472461673
sg23
I102492
sg24
F0.0
sg25
F1.0
sg26
g6
sg27
I371750
sg28
g6
sg29
F0.0
sg30
g6
sg31
F0.0
sg32
g6
sg33
F0.0
sg34
g6
sg35
I0
sg36
I77492
sg37
F0.0
sg38
F0.20845404585327276
sg39
I371750
sg40
F0.0
sg41
F0.0
ssS'SHAPIRO RICHARD S'
p181
(dp182
g3
I15149
sg4
F0.6146293123338137
sg5
g6
sg7
I137767
sg8
F0.0
sg9
F0.0
sg10
I00
sg11
g6
sg12
S'richard.shapiro@enron.com'
p183
sg14
g6
sg15
F0.3841576654937533
sg16
F0.0
sg17
g6
sg18
I4527
sg19
g6
sg20
I1215
sg21
I705
sg22
F0.0
sg23
g6
sg24
F0.25443384130082036
sg25
F0.6158423345062467
sg26
I650000
sg27
I987001
sg28
I74
sg29
F0.0
sg30
I65
sg31
F0.053497942386831275
sg32
I379164
sg33
F0.0048848108786058485
sg34
I269076
sg35
I1
sg36
I1057548
sg37
F0.0006666364079928287
sg38
F1.0714760456412449
sg39
I607837
sg40
F0.1302702099573731
sg41
F0.0
ssS'SHERRIFF JOHN R'
p184
(dp185
g3
I3187
sg4
F0.34598979376240374
sg5
g6
sg7
g6
sg8
F0.1278829022915596
sg9
F0.0
sg10
I00
sg11
g6
sg12
S'john.sherriff@enron.com'
p186
sg14
I554422
sg15
F0.41336894875074387
sg16
F0.0
sg17
g6
sg18
I2103
sg19
g6
sg20
I92
sg21
I1852186
sg22
F0.0
sg23
g6
sg24
F0.09890233584629565
sg25
F0.5866310512492562
sg26
I1500000
sg27
I3128982
sg28
I28
sg29
F0.0
sg30
I23
sg31
F0.25
sg32
I1293424
sg33
F0.008785691873235017
sg34
I428780
sg35
I1
sg36
I4335388
sg37
F0.42722496809974103
sg38
F1.3855585025549835
sg39
I1835558
sg40
F0.0
sg41
F0.0
ssS'SHELBY REX'
p187
(dp188
g3
I225
sg4
F0.09980612659908128
sg5
g6
sg7
I22884
sg8
F0.0
sg9
F0.0
sg10
I01
sg11
I-4167
sg12
S'rex.shelby@enron.com'
p189
sg14
g6
sg15
F0.34857812911049657
sg16
F0.0
sg17
g6
sg18
I91
sg19
g6
sg20
I39
sg21
I1573324
sg22
F-0.0020794606476918585
sg23
g6
sg24
F0.10571664541627888
sg25
F0.6514218708895034
sg26
I200000
sg27
I2493616
sg28
I13
sg29
F0.0
sg30
I14
sg31
F0.358974358974359
sg32
I869220
sg33
F0.057777777777777775
sg34
I211844
sg35
I1
sg36
I2003885
sg37
F0.7851368716268649
sg38
F0.8036061672662642
sg39
I1624396
sg40
F0.011419817005466881
sg41
F0.0
ssS'LEMAISTRE CHARLES'
p190
(dp191
g3
g6
sg4
F0.0
sg5
g6
sg7
g6
sg8
F0.0
sg9
F0.0
sg10
I00
sg11
I-25000
sg12
g6
sg14
g6
sg15
F0.0
sg16
F1.285740410551822
sg17
g6
sg18
g6
sg19
g6
sg20
g6
sg21
g6
sg22
F-0.28574041055182187
sg23
I112492
sg24
F0.0
sg25
F1.0
sg26
g6
sg27
I412878
sg28
g6
sg29
F0.0
sg30
g6
sg31
F0.0
sg32
g6
sg33
F0.0
sg34
g6
sg35
I0
sg36
I87492
sg37
F0.0
sg38
F0.21190954250518917
sg39
I412878
sg40
F0.0
sg41
F0.0
ssS'DEFFNER JOSEPH M'
p192
(dp193
g3
I714
sg4
F0.49642203815996205
sg5
g6
sg7
I41626
sg8
F0.2774577234581752
sg9
F0.0
sg10
I00
sg11
g6
sg12
S'joseph.deffner@enron.com'
p194
sg14
I335349
sg15
F0.8908492503658667
sg16
F0.0
sg17
g6
sg18
I552
sg19
g6
sg20
I74
sg21
I25553
sg22
F0.0
sg23
g6
sg24
F0.17053834487928257
sg25
F0.10915074963413332
sg26
I600000
sg27
I159211
sg28
I115
sg29
F0.0
sg30
I4
sg31
F0.05405405405405406
sg32
I141833
sg33
F0.16106442577030813
sg34
I206121
sg35
I1
sg36
I1208649
sg37
F0.021141787235169185
sg38
F7.591450393186443
sg39
I17378
sg40
F0.034440106267410966
sg41
F0.0
ssS'KISHKILL JOSEPH G'
p195
(dp196
g3
g6
sg4
F0.0
sg5
g6
sg7
I116335
sg8
F0.0
sg9
F0.0
sg10
I00
sg11
I-51042
sg12
S'joe.kishkill@enron.com'
p197
sg14
g6
sg15
F1.0
sg16
F0.0
sg17
g6
sg18
g6
sg19
g6
sg20
g6
sg21
I465357
sg22
F-0.07241068185945161
sg23
g6
sg24
F0.2471939122934447
sg25
F0.0
sg26
g6
sg27
I1034346
sg28
g6
sg29
F0.0
sg30
g6
sg31
F0.0
sg32
I1034346
sg33
F0.0
sg34
I174246
sg35
I1
sg36
I704896
sg37
F0.660178239059379
sg38
F0.681489867520281
sg39
g6
sg40
F0.16503853050662792
sg41
F0.0
ssS'WHALLEY LAWRENCE G'
p198
(dp199
g3
I6019
sg4
F0.6413581057189047
sg5
g6
sg7
I57838
sg8
F0.17281308644181792
sg9
F0.0
sg10
I00
sg11
g6
sg12
S'greg.whalley@enron.com'
p200
sg14
I808346
sg15
F0.4599628203805902
sg16
F0.0
sg17
g6
sg18
I3920
sg19
g6
sg20
I556
sg21
I301026
sg22
F0.0
sg23
g6
sg24
F0.10910869608904103
sg25
F0.5400371796194098
sg26
I3000000
sg27
I6079137
sg28
I186
sg29
F0.0
sg30
I24
sg31
F0.04316546762589928
sg32
I2796177
sg33
F0.03090214321315833
sg34
I510364
sg35
I1
sg36
I4677574
sg37
F0.06435515504404633
sg38
F0.769447082793646
sg39
I3282960
sg40
F0.012364956706190004
sg41
F0.0
ssS'MCCONNELL MICHAEL S'
p201
(dp202
g3
I3329
sg4
F0.5234695178940917
sg5
g6
sg7
I81364
sg8
F0.26383910640898006
sg9
F0.0
sg10
I00
sg11
g6
sg12
S'mike.mcconnell@enron.com'
p203
sg14
I554422
sg15
F0.47666430527533965
sg16
F0.0
sg17
g6
sg18
I2189
sg19
g6
sg20
I2742
sg21
I540
sg22
F0.0
sg23
g6
sg24
F0.17371478715729402
sg25
F0.5233356947246603
sg26
I1100000
sg27
I3101279
sg28
I92
sg29
F0.0
sg30
I194
sg31
F0.07075127644055434
sg32
I1478269
sg33
F0.02763592670471613
sg34
I365038
sg35
I1
sg36
I2101364
sg37
F0.00025697594514800863
sg38
F0.6775799024918743
sg39
I1623010
sg40
F0.038719612594486245
sg41
F0.0
ssS'PIRO JIM'
p204
(dp205
g3
I58
sg4
F0.0
sg5
g6
sg7
g6
sg8
F0.0
sg9
F0.0
sg10
I00
sg11
g6
sg12
S'jim.piro@enron.com'
p206
sg14
g6
sg15
F1.0
sg16
F0.0
sg17
g6
sg18
I3
sg19
g6
sg20
I16
sg21
g6
sg22
F0.0
sg23
g6
sg24
F0.0
sg25
F0.0
sg26
g6
sg27
I47304
sg28
I0
sg29
F0.0
sg30
I1
sg31
F0.0625
sg32
I47304
sg33
F0.0
sg34
g6
sg35
I1
sg36
g6
sg37
F0.0
sg38
F2.1139414438220062e-05
sg39
g6
sg40
F0.0
sg41
F0.0
ssS'DELAINEY DAVID W'
p207
(dp208
g3
I3093
sg4
F0.6318477819720769
sg5
g6
sg7
I86174
sg8
F0.27274362418199405
sg9
F0.0
sg10
I01
sg11
g6
sg12
S'david.delainey@enron.com'
p209
sg14
I1294981
sg15
F0.3660908827558386
sg16
F0.0
sg17
g6
sg18
I2097
sg19
g6
sg20
I3069
sg21
I1661
sg22
F0.0
sg23
g6
sg24
F0.07690914386942319
sg25
F0.6339091172441614
sg26
I3000000
sg27
I3614261
sg28
I66
sg29
F0.0
sg30
I609
sg31
F0.198435972629521
sg32
I1323148
sg33
F0.02133850630455868
sg34
I365163
sg35
I1
sg36
I4747979
sg37
F0.0003498330552852066
sg38
F1.3136789751268725
sg39
I2291113
sg40
F0.018149616921220586
sg41
F0.0
ssS'SULLIVAN-SHAKLOVITZ COLLEEN'
p210
(dp211
g3
g6
sg4
F0.10006444150032621
sg5
I181993
sg7
g6
sg8
F0.5547792778549386
sg9
F0.0
sg10
I00
sg11
g6
sg12
g6
sg14
I554422
sg15
F0.0
sg16
F0.0
sg17
g6
sg18
g6
sg19
g6
sg20
g6
sg21
I162
sg22
F0.0
sg23
g6
sg24
F0.162883897229816
sg25
F1.0
sg26
I100000
sg27
I1362375
sg28
g6
sg29
F0.0
sg30
g6
sg31
F0.0
sg32
g6
sg33
F0.0
sg34
I162779
sg35
I0
sg36
I999356
sg37
F0.00016210439523052847
sg38
F0.7335397863732186
sg39
I1362375
sg40
F0.0
sg41
F0.18211027901968868
ssS'WROBEL BRUCE'
p212
(dp213
g3
g6
sg4
F0.0
sg5
g6
sg7
g6
sg8
F0.0
sg9
F0.0
sg10
I00
sg11
g6
sg12
g6
sg14
g6
sg15
F0.0
sg16
F0.0
sg17
g6
sg18
g6
sg19
g6
sg20
g6
sg21
g6
sg22
F0.0
sg23
g6
sg24
F0.0
sg25
F1.0
sg26
g6
sg27
I139130
sg28
g6
sg29
F0.0
sg30
g6
sg31
F0.0
sg32
g6
sg33
F0.0
sg34
g6
sg35
I0
sg36
g6
sg37
F0.0
sg38
F7.187470800899871e-06
sg39
I139130
sg40
F0.0
sg41
F0.0
ssS'LINDHOLM TOD A'
p214
(dp215
g3
g6
sg4
F0.22833943570475254
sg5
I204075
sg7
I57727
sg8
F0.19979700624165847
sg9
F0.0
sg10
I00
sg11
g6
sg12
S'tod.lindholm@enron.com'
p216
sg14
I175000
sg15
F0.1680195991916998
sg16
F0.0
sg17
g6
sg18
g6
sg19
g6
sg20
g6
sg21
I2630
sg22
F0.0
sg23
g6
sg24
F0.2699622897421934
sg25
F0.8319804008083003
sg26
I200000
sg27
I3064208
sg28
g6
sg29
F0.0
sg30
g6
sg31
F0.0
sg32
I514847
sg33
F0.0
sg34
I236457
sg35
I1
sg36
I875889
sg37
F0.003002663579517496
sg38
F0.28584538456743647
sg39
I2549361
sg40
F0.06590675302464125
sg41
F0.23299185170723688
ssS'MEYER JEROME J'
p217
(dp218
g3
g6
sg4
F0.0
sg5
g6
sg7
I2151
sg8
F0.0
sg9
F0.0
sg10
I00
sg11
I-38346
sg12
g6
sg14
g6
sg15
F0.0
sg16
F17.82705718270572
sg17
g6
sg18
g6
sg19
g6
sg20
g6
sg21
g6
sg22
F-17.82705718270572
sg23
I38346
sg24
F0.0
sg25
F0.0
sg26
g6
sg27
g6
sg28
g6
sg29
F0.0
sg30
g6
sg31
F0.0
sg32
g6
sg33
F0.0
sg34
g6
sg35
I0
sg36
I2151
sg37
F0.0
sg38
F2152.0
sg39
g6
sg40
F1.0
sg41
F0.0
ssS'BUTTS ROBERT H'
p219
(dp220
g3
g6
sg4
F0.5898164648445794
sg5
g6
sg7
I9410
sg8
F0.13762384179706855
sg9
F0.0
sg10
I00
sg11
I-75000
sg12
S'bob.butts@enron.com'
p221
sg14
I175000
sg15
F1.0
sg16
F0.0
sg17
g6
sg18
g6
sg19
g6
sg20
g6
sg21
I150656
sg22
F-0.058981646484457945
sg23
g6
sg24
F0.20566192349372672
sg25
F0.0
sg26
I750000
sg27
I417619
sg28
g6
sg29
F0.0
sg30
g6
sg31
F0.0
sg32
I417619
sg33
F0.0
sg34
I261516
sg35
I1
sg36
I1271582
sg37
F0.11847918577016661
sg38
F3.0448326229586704
sg39
g6
sg40
F0.007400230578916657
sg41
F0.0
ssS'OLSON CINDY K'
p222
(dp223
g3
I1184
sg4
F0.5675124114964394
sg5
I77716
sg7
I63791
sg8
F0.07566832153285859
sg9
F0.0
sg10
I00
sg11
g6
sg12
S'cindy.olson@enron.com'
p224
sg14
I100000
sg15
F0.372005049941249
sg16
F0.0
sg17
g6
sg18
I856
sg19
g6
sg20
I52
sg21
I972
sg22
F0.0
sg23
g6
sg24
F0.2490077991339004
sg25
F0.6279949500587511
sg26
I750000
sg27
I2606763
sg28
I20
sg29
F0.0
sg30
I15
sg31
F0.28846153846153844
sg32
I969729
sg33
F0.016891891891891893
sg34
I329078
sg35
I1
sg36
I1321557
sg37
F0.0007354960852993855
sg38
F0.5069726296665137
sg39
I1637034
sg40
F0.04826957898902582
sg41
F0.05880639276247638
ssS'MCDONALD REBECCA'
p225
(dp226
g3
I894
sg4
F0.0
sg5
g6
sg7
g6
sg8
F0.0
sg9
F0.0
sg10
I00
sg11
g6
sg12
S'rebecca.mcdonald@enron.com'
p227
sg14
g6
sg15
F0.5522548046963224
sg16
F0.0
sg17
g6
sg18
I720
sg19
g6
sg20
I13
sg21
g6
sg22
F0.0
sg23
g6
sg24
F0.0
sg25
F0.4477451953036776
sg26
g6
sg27
I1691366
sg28
I54
sg29
F0.0
sg30
I1
sg31
F0.07692307692307693
sg32
I934065
sg33
F0.06040268456375839
sg34
g6
sg35
I1
sg36
g6
sg37
F0.0
sg38
F5.912377384683513e-07
sg39
I757301
sg40
F0.0
sg41
F0.0
ssS'CUMBERLAND MICHAEL S'
p228
(dp229
g3
g6
sg4
F0.4022496274549604
sg5
g6
sg7
I22344
sg8
F0.3403650693849665
sg9
F0.0
sg10
I00
sg11
g6
sg12
g6
sg14
I275000
sg15
F1.0
sg16
F0.0
sg17
g6
sg18
g6
sg19
g6
sg20
g6
sg21
I713
sg22
F0.0
sg23
g6
sg24
F0.2288478580516761
sg25
F0.0
sg26
I325000
sg27
I207940
sg28
g6
sg29
F0.0
sg30
g6
sg31
F0.0
sg32
I207940
sg33
F0.0
sg34
I184899
sg35
I0
sg36
I807956
sg37
F0.0008824737980781132
sg38
F3.8855107939271236
sg39
g6
sg40
F0.02765497131031888
sg41
F0.0
ssS'GAHN ROBERT S'
p230
(dp231
g3
g6
sg4
F0.5661542219779365
sg5
I73122
sg7
I50080
sg8
F0.0
sg9
F0.0
sg10
I00
sg11
I-1042
sg12
g6
sg14
g6
sg15
F0.7387471085067183
sg16
F0.0
sg17
g6
sg18
g6
sg19
g6
sg20
g6
sg21
I76547
sg22
F-0.0011570257110655852
sg23
g6
sg24
F0.21320363985631563
sg25
F0.2612528914932817
sg26
I509870
sg27
I318607
sg28
g6
sg29
F0.0
sg30
g6
sg31
F0.0
sg32
I235370
sg33
F0.0
sg34
I192008
sg35
I0
sg36
I900585
sg37
F0.08499697418899937
sg38
F2.8266270777883795
sg39
I83237
sg40
F0.055608299050061906
sg41
F0.08119389063775213
ssS'MCCLELLAN GEORGE'
p232
(dp233
g3
I1744
sg4
F0.6824577274309334
sg5
g6
sg7
I228763
sg8
F0.0
sg9
F0.0
sg10
I00
sg11
I-125000
sg12
S'george.mcclellan@enron.com'
p234
sg14
g6
sg15
F0.46535937231302904
sg16
F0.0
sg17
g6
sg18
I1469
sg19
g6
sg20
I49
sg21
I51587
sg22
F-0.09478579547651853
sg23
g6
sg24
F0.1997424859508494
sg25
F0.534640627686971
sg26
I900000
sg27
I947861
sg28
I52
sg29
F0.0
sg30
I0
sg31
F0.0
sg32
I441096
sg33
F0.02981651376146789
sg34
I263413
sg35
I1
sg36
I1318763
sg37
F0.03911771864997729
sg38
F1.3913037973882274
sg39
I506765
sg40
F0.17346786344475845
sg41
F0.0
ssS'HERMANN ROBERT J'
p235
(dp236
g3
g6
sg4
F0.5395152532523135
sg5
g6
sg7
I48357
sg8
F0.11561041141121005
sg9
F0.0
sg10
I00
sg11
I-280000
sg12
S'robert.hermann@enron.com'
p237
sg14
I150000
sg15
F0.7193668317039148
sg16
F0.0
sg17
g6
sg18
g6
sg19
g6
sg20
g6
sg21
I416441
sg22
F-0.21580610130092542
sg23
g6
sg24
F0.20244384995001777
sg25
F0.2806331682960852
sg26
I700000
sg27
I668132
sg28
g6
sg29
F0.0
sg30
g6
sg31
F0.0
sg32
I480632
sg33
F0.0
sg34
I262663
sg35
I1
sg36
I1297461
sg37
F0.32096610225663813
sg38
F1.9419217431259943
sg39
I187500
sg40
F0.0372704844307459
sg41
F0.0
ssS'SCRIMSHAW MATTHEW'
p238
(dp239
g3
g6
sg4
F0.0
sg5
g6
sg7
g6
sg8
F0.0
sg9
F0.0
sg10
I00
sg11
g6
sg12
S'matthew.scrimshaw@enron.com'
p240
sg14
g6
sg15
F0.0
sg16
F0.0
sg17
g6
sg18
g6
sg19
g6
sg20
g6
sg21
g6
sg22
F0.0
sg23
g6
sg24
F0.0
sg25
F1.0
sg26
g6
sg27
I759557
sg28
g6
sg29
F0.0
sg30
g6
sg31
F0.0
sg32
g6
sg33
F0.0
sg34
g6
sg35
I1
sg36
g6
sg37
F0.0
sg38
F1.316555154445085e-06
sg39
I759557
sg40
F0.0
sg41
F0.0
ssS'GATHMANN WILLIAM D'
p241
(dp242
g3
g6
sg4
F0.0
sg5
g6
sg7
g6
sg8
F0.0
sg9
F0.0
sg10
I00
sg11
g6
sg12
g6
sg14
g6
sg15
F0.13571421227947528
sg16
F0.0
sg17
I-72419
sg18
g6
sg19
g6
sg20
g6
sg21
g6
sg22
F0.0
sg23
g6
sg24
F0.0
sg25
F0.9015123164864087
sg26
g6
sg27
I1945360
sg28
g6
sg29
F-0.03722652876588395
sg30
g6
sg31
F0.0
sg32
I264013
sg33
F0.0
sg34
g6
sg35
I0
sg36
g6
sg37
F0.0
sg38
F5.140434089097088e-07
sg39
I1753766
sg40
F0.0
sg41
F0.0
ssS'HAEDICKE MARK E'
p243
(dp244
g3
I4009
sg4
F0.29799964499172726
sg5
I2157527
sg7
I76169
sg8
F0.25481457296003046
sg9
F0.0
sg10
I00
sg11
I-934484
sg12
S'mark.haedicke@enron.com'
p245
sg14
I983346
sg15
F0.6526869830928883
sg16
F0.0
sg17
I-329825
sg18
I1847
sg19
g6
sg20
I1941
sg21
I52382
sg22
F-0.2421529567395211
sg23
g6
sg24
F0.09694705841959127
sg25
F0.7580059121348186
sg26
I1150000
sg27
I803094
sg28
I180
sg29
F-0.41069289522770686
sg30
I61
sg31
F0.03142709943328181
sg32
I524169
sg33
F0.04489897730107259
sg34
I374125
sg35
I1
sg36
I3859065
sg37
F0.013573754264310137
sg38
F4.805242219164607
sg39
I608750
sg40
F0.019737682573369456
sg41
F0.5590802435304925
ssS'BOWEN JR RAYMOND M'
p246
(dp247
g3
I1858
sg4
F0.5056958205926081
sg5
g6
sg7
I65907
sg8
F0.36495992454269177
sg9
F0.0
sg10
I01
sg11
I-833
sg12
S'raymond.bowen@enron.com'
p248
sg14
I974293
sg15
F1.0
sg16
F0.0
sg17
g6
sg18
I1593
sg19
g6
sg20
I27
sg21
I1621
sg22
F-0.00031203305078047593
sg23
g6
sg24
F0.10436100837994162
sg25
F0.0
sg26
I1350000
sg27
I252055
sg28
I140
sg29
F0.0
sg30
I15
sg31
F0.5555555555555556
sg32
I252055
sg33
F0.07534983853606028
sg34
I278601
sg35
I1
sg36
I2669589
sg37
F0.000607209574207865
sg38
F10.591257498333704
sg39
g6
sg40
F0.024688069961331126
sg41
F0.0
ssS'GILLIS JOHN'
p249
(dp250
g3
g6
sg4
F0.0
sg5
g6
sg7
g6
sg8
F0.0
sg9
F0.0
sg10
I00
sg11
g6
sg12
g6
sg14
g6
sg15
F0.8855337980640114
sg16
F0.0
sg17
g6
sg18
g6
sg19
g6
sg20
g6
sg21
g6
sg22
F0.0
sg23
g6
sg24
F0.0
sg25
F0.11446620193598861
sg26
g6
sg27
I85641
sg28
g6
sg29
F0.0
sg30
g6
sg31
F0.0
sg32
I75838
sg33
F0.0
sg34
g6
sg35
I0
sg36
g6
sg37
F0.0
sg38
F1.1676513860021952e-05
sg39
I9803
sg40
F0.0
sg41
F0.0
ssS'FITZGERALD JAY L'
p251
(dp252
g3
I936
sg4
F0.24737482303865338
sg5
g6
sg7
I23870
sg8
F0.3932665986739296
sg9
F0.0
sg10
I00
sg11
g6
sg12
S'jay.fitzgerald@enron.com'
p253
sg14
I556416
sg15
F0.5901515880476377
sg16
F0.0
sg17
g6
sg18
I723
sg19
g6
sg20
I16
sg21
I285414
sg22
F0.0
sg23
g6
sg24
F0.14076122180545456
sg25
F0.40984841195236227
sg26
I350000
sg27
I1621236
sg28
I1
sg29
F0.0
sg30
I8
sg31
F0.5
sg32
I956775
sg33
F0.0010683760683760685
sg34
I199157
sg35
I1
sg36
I1414857
sg37
F0.20172639355072633
sg38
F0.8727027572156323
sg39
I664461
sg40
F0.01687096293123616
sg41
F0.0
ssS'MORAN MICHAEL P'
p254
(dp255
g3
I672
sg4
F0.0
sg5
g6
sg7
g6
sg8
F0.0
sg9
F0.0
sg10
I00
sg11
g6
sg12
S'michael.moran@enron.com'
p256
sg14
g6
sg15
F0.7307645348442848
sg16
F0.0
sg17
g6
sg18
I127
sg19
g6
sg20
I19
sg21
g6
sg22
F0.0
sg23
g6
sg24
F0.0
sg25
F0.2692354651557151
sg26
g6
sg27
I221141
sg28
I0
sg29
F0.0
sg30
I0
sg31
F0.0
sg32
I161602
sg33
F0.0
sg34
g6
sg35
I1
sg36
g6
sg37
F0.0
sg38
F4.521981351348907e-06
sg39
I59539
sg40
F0.0
sg41
F0.0
ssS'REDMOND BRIAN L'
p257
(dp258
g3
I1671
sg4
F0.0
sg5
g6
sg7
I14689
sg8
F0.0
sg9
F0.0
sg10
I00
sg11
g6
sg12
S'brian.redmond@enron.com'
p259
sg14
g6
sg15
F0.048323110685949015
sg16
F0.0
sg17
g6
sg18
I1063
sg19
g6
sg20
I221
sg21
g6
sg22
F0.0
sg23
g6
sg24
F0.8682943449685732
sg25
F0.951676889314051
sg26
g6
sg27
I7890324
sg28
I204
sg29
F0.0
sg30
I49
sg31
F0.22171945701357465
sg32
I381285
sg33
F0.12208258527827648
sg34
I96840
sg35
I1
sg36
I111529
sg37
F0.0
sg38
F0.014135032460640087
sg39
I7509039
sg40
F0.1317056550314268
sg41
F0.0
ssS'BAZELIDES PHILIP J'
p260
(dp261
g3
g6
sg4
F0.0
sg5
I684694
sg7
g6
sg8
F0.10899439158458663
sg9
F0.0
sg10
I00
sg11
g6
sg12
g6
sg14
I93750
sg15
F0.0
sg16
F0.0
sg17
g6
sg18
g6
sg19
g6
sg20
g6
sg21
I874
sg22
F0.0
sg23
g6
sg24
F0.0939595598835533
sg25
F1.0
sg26
g6
sg27
I1599641
sg28
g6
sg29
F0.0
sg30
g6
sg31
F0.0
sg32
g6
sg33
F0.0
sg34
I80818
sg35
I0
sg36
I860136
sg37
F0.0010161183812792396
sg38
F0.5377059367033373
sg39
I1599641
sg40
F0.0
sg41
F0.7960299301505809
ssS'BELDEN TIMOTHY N'
p262
(dp263
g3
I7991
sg4
F0.9542624640333864
sg5
I2144013
sg7
I17355
sg8
F0.0
sg9
F0.0
sg10
I01
sg11
I-2334434
sg12
S'tim.belden@enron.com'
p264
sg14
g6
sg15
F0.1418639512741907
sg16
F0.0
sg17
g6
sg18
I5521
sg19
g6
sg20
I484
sg21
I210698
sg22
F-0.4243167933866872
sg23
g6
sg24
F0.03889738132153562
sg25
F0.8581360487258093
sg26
I5249999
sg27
I1110705
sg28
I228
sg29
F0.0
sg30
I108
sg31
F0.2231404958677686
sg32
I157569
sg33
F0.028532098610937303
sg34
I213999
sg35
I1
sg36
I5501630
sg37
F0.03829737732272072
sg38
F4.953273863650687
sg39
I953136
sg40
F0.003154519660536968
sg41
F0.38970505104850744
ssS'DURAN WILLIAM D'
p265
(dp266
g3
I904
sg4
F0.3582922929416896
sg5
g6
sg7
I25785
sg8
F0.5279881218939044
sg9
F0.0
sg10
I00
sg11
g6
sg12
S'w.duran@enron.com'
p267
sg14
I1105218
sg15
F0.11520497772577411
sg16
F0.0
sg17
g6
sg18
I599
sg19
g6
sg20
I12
sg21
I1568
sg22
F0.0
sg23
g6
sg24
F0.10065242637929396
sg25
F0.8847950222742259
sg26
I750000
sg27
I1640910
sg28
I106
sg29
F0.0
sg30
I3
sg31
F0.25
sg32
I189041
sg33
F0.1172566371681416
sg34
I210692
sg35
I1
sg36
I2093263
sg37
F0.0007490697537767591
sg38
F1.2756718676393783
sg39
I1451869
sg40
F0.01231808903133529
sg41
F0.0
ssS'THORN TERENCE H'
p268
(dp269
g3
I266
sg4
F0.0
sg5
I16586
sg7
I46145
sg8
F0.21942985540669677
sg9
F0.0
sg10
I00
sg11
g6
sg12
S'terence.thorn@enron.com'
p270
sg14
I200000
sg15
F0.07582720397459751
sg16
F0.0
sg17
g6
sg18
I73
sg19
g6
sg20
I41
sg21
I426629
sg22
F0.0
sg23
g6
sg24
F0.24366917438419755
sg25
F0.9241727960254025
sg26
g6
sg27
I4817796
sg28
I0
sg29
F0.0
sg30
I0
sg31
F0.0
sg32
I365320
sg33
F0.0
sg34
I222093
sg35
I1
sg36
I911453
sg37
F0.4680756989115182
sg38
F0.1891848079111677
sg39
I4452476
sg40
F0.050627953388710116
sg41
F0.018197317908877363
ssS'FASTOW ANDREW S'
p271
(dp272
g3
g6
sg4
F0.5362852674599013
sg5
g6
sg7
I55921
sg8
F0.7161697846154608
sg9
F0.0
sg10
I01
sg11
I-1386055
sg12
S'andrew.fastow@enron.com'
p273
sg14
I1736055
sg15
F1.0
sg16
F0.0
sg17
g6
sg18
g6
sg19
g6
sg20
g6
sg21
I277464
sg22
F-0.5717852895301028
sg23
g6
sg24
F0.1817998806146489
sg25
F0.0
sg26
I1300000
sg27
I1794412
sg28
g6
sg29
F0.0
sg30
g6
sg31
F0.0
sg32
I1794412
sg33
F0.0
sg34
I440698
sg35
I1
sg36
I2424083
sg37
F0.11446142726961082
sg38
F1.350906396687942
sg39
g6
sg40
F0.02306892957048088
sg41
F0.0
ssS'FOY JOE'
p274
(dp275
g3
I57
sg4
F0.0
sg5
I181755
sg7
g6
sg8
F0.0
sg9
F0.0
sg10
I00
sg11
g6
sg12
S'tracy.foy@enron.com'
p276
sg14
g6
sg15
F0.0
sg16
F0.0
sg17
g6
sg18
I2
sg19
g6
sg20
I13
sg21
g6
sg22
F0.0
sg23
g6
sg24
F0.0
sg25
F1.0
sg26
g6
sg27
I343434
sg28
I0
sg29
F0.0
sg30
I0
sg31
F0.0
sg32
g6
sg33
F0.0
sg34
g6
sg35
I1
sg36
I181755
sg37
F0.0
sg38
F0.5292296941197024
sg39
I343434
sg40
F0.0
sg41
F1.0
ssS'CALGER CHRISTOPHER F'
p277
(dp278
g3
I2598
sg4
F0.7625219835087845
sg5
g6
sg7
I35818
sg8
F0.22894204039902472
sg9
F0.0
sg10
I01
sg11
I-262500
sg12
S'christopher.calger@enron.com'
p279
sg14
I375304
sg15
F1.0
sg16
F0.0
sg17
g6
sg18
I2188
sg19
g6
sg20
I144
sg21
I486
sg22
F-0.16012961653684477
sg23
g6
sg24
F0.14651951415759315
sg25
F0.0
sg26
I1250000
sg27
I126027
sg28
I199
sg29
F0.0
sg30
I25
sg31
F0.1736111111111111
sg32
I126027
sg33
F0.07659738260200154
sg34
I240189
sg35
I1
sg36
I1639297
sg37
F0.00029646854718821546
sg38
F13.007411051512362
sg39
g6
sg40
F0.021849609924254117
sg41
F0.0
ssS'RICE KENNETH D'
p280
(dp281
g3
I905
sg4
F3.465003465003465
sg5
g6
sg7
I46950
sg8
F3.2016849816849815
sg9
F0.0
sg10
I01
sg11
I-3504386
sg12
S'ken.rice@enron.com'
p282
sg14
I1617011
sg15
F0.12191900832466121
sg16
F0.0
sg17
g6
sg18
I864
sg19
g6
sg20
I18
sg21
I174839
sg22
F-6.938691218691218
sg23
g6
sg24
F0.8328601128601129
sg25
F0.8780809916753388
sg26
I1750000
sg27
I22542539
sg28
I42
sg29
F0.0
sg30
I4
sg31
F0.2222222222222222
sg32
I2748364
sg33
F0.04640883977900553
sg34
I420636
sg35
I1
sg36
I505050
sg37
F0.3461815661815662
sg38
F0.02240435194969156
sg39
I19794175
sg40
F0.09296109296109296
sg41
F0.0
ssS'KAMINSKI WINCENTY J'
p283
(dp284
g3
I4607
sg4
F0.368045887961311
sg5
g6
sg7
I83585
sg8
F0.29762582798823356
sg9
F0.0
sg10
I00
sg11
g6
sg12
S'vince.kaminski@enron.com'
p285
sg14
I323466
sg15
F0.12912112962930708
sg16
F0.0
sg17
g6
sg18
I583
sg19
g6
sg20
I14368
sg21
I4669
sg22
F0.0
sg23
g6
sg24
F0.2531244795601116
sg25
F0.8708788703706929
sg26
I400000
sg27
I976037
sg28
I41
sg29
F0.0
sg30
I171
sg31
F0.011901447661469933
sg32
I126027
sg33
F0.008899500759713479
sg34
I275101
sg35
I1
sg36
I1086821
sg37
F0.004296015627228403
sg38
F1.113503777516859
sg39
I850010
sg40
F0.07690778886311546
sg41
F0.0
ssS'LOCKHART EUGENE E'
p286
(dp287
g3
g6
sg4
F0.0
sg5
g6
sg7
g6
sg8
F0.0
sg9
F0.0
sg10
I00
sg11
g6
sg12
g6
sg14
g6
sg15
F0.0
sg16
F0.0
sg17
g6
sg18
g6
sg19
g6
sg20
g6
sg21
g6
sg22
F0.0
sg23
g6
sg24
F0.0
sg25
F0.0
sg26
g6
sg27
g6
sg28
g6
sg29
F0.0
sg30
g6
sg31
F0.0
sg32
g6
sg33
F0.0
sg34
g6
sg35
I0
sg36
g6
sg37
F0.0
sg38
F1.0
sg39
g6
sg40
F0.0
sg41
F0.0
ssS'COX DAVID'
p288
(dp289
g3
I102
sg4
F0.7263529003725282
sg5
g6
sg7
I27861
sg8
F0.0
sg9
F0.0
sg10
I00
sg11
I-41250
sg12
S'chip.cox@enron.com'
p290
sg14
g6
sg15
F0.7628265268858208
sg16
F0.0
sg17
g6
sg18
I71
sg19
g6
sg20
I33
sg21
I494
sg22
F-0.037452571425458485
sg23
g6
sg24
F0.28535500044035145
sg25
F0.23717347311417925
sg26
I800000
sg27
I495633
sg28
I0
sg29
F0.0
sg30
I4
sg31
F0.12121212121212122
sg32
I378082
sg33
F0.0
sg34
I314288
sg35
I1
sg36
I1101393
sg37
F0.0004485229159800362
sg38
F2.2221921821343975
sg39
I117551
sg40
F0.025296147696598763
sg41
F0.0
ssS'OVERDYKE JR JERE C'
p291
(dp292
g3
g6
sg4
F0.0
sg5
g6
sg7
I18834
sg8
F0.5438073238399116
sg9
F0.0
sg10
I00
sg11
g6
sg12
S'jere.overdyke@enron.com'
p293
sg14
I135836
sg15
F0.2793006836449863
sg16
F0.0
sg17
g6
sg18
g6
sg19
g6
sg20
g6
sg21
I176
sg22
F0.0
sg23
g6
sg24
F0.38008783483527964
sg25
F0.7206993163550137
sg26
g6
sg27
I7307594
sg28
g6
sg29
F0.0
sg30
g6
sg31
F0.0
sg32
I2041016
sg33
F0.0
sg34
I94941
sg35
I1
sg36
I249787
sg37
F0.0007046003194721903
sg38
F0.03418197094940264
sg39
I5266578
sg40
F0.07540024100533654
sg41
F0.0
ssS'PEREIRA PAULO V. FERRAZ'
p294
(dp295
g3
g6
sg4
F0.0
sg5
g6
sg7
I27942
sg8
F0.0
sg9
F0.0
sg10
I00
sg11
I-101250
sg12
g6
sg14
g6
sg15
F0.0
sg16
F3.623577410350011
sg17
g6
sg18
g6
sg19
g6
sg20
g6
sg21
g6
sg22
F-3.623577410350011
sg23
I101250
sg24
F0.0
sg25
F0.0
sg26
g6
sg27
g6
sg28
g6
sg29
F0.0
sg30
g6
sg31
F0.0
sg32
g6
sg33
F0.0
sg34
g6
sg35
I0
sg36
I27942
sg37
F0.0
sg38
F27943.0
sg39
g6
sg40
F1.0
sg41
F0.0
ssS'STABLER FRANK'
p296
(dp297
g3
g6
sg4
F0.44960511183027946
sg5
g6
sg7
I16514
sg8
F0.0
sg9
F0.0
sg10
I00
sg11
g6
sg12
S'frank.stabler@enron.com'
p298
sg14
g6
sg15
F1.0
sg16
F0.0
sg17
g6
sg18
g6
sg19
g6
sg20
g6
sg21
I356071
sg22
F0.0
sg23
g6
sg24
F0.21536264698715119
sg25
F0.0
sg26
I500000
sg27
I511734
sg28
g6
sg29
F0.0
sg30
g6
sg31
F0.0
sg32
I511734
sg33
F0.0
sg34
I239502
sg35
I1
sg36
I1112087
sg37
F0.3201826835490389
sg38
F2.1731716611136624
sg39
g6
sg40
F0.01484955763353047
sg41
F0.0
ssS'SKILLING JEFFREY K'
p299
(dp300
g3
I3627
sg4
F0.6449594804206426
sg5
g6
sg7
I29336
sg8
F0.22112896471564888
sg9
F0.0
sg10
I01
sg11
g6
sg12
S'jeff.skilling@enron.com'
p301
sg14
I1920000
sg15
F0.2622732438730739
sg16
F0.0
sg17
g6
sg18
I2042
sg19
g6
sg20
I108
sg21
I22122
sg22
F0.0
sg23
g6
sg24
F0.12798506826665756
sg25
F0.7377267561269261
sg26
I5600000
sg27
I26093672
sg28
I88
sg29
F0.0
sg30
I30
sg31
F0.2777777777777778
sg32
I6843672
sg33
F0.0242624758753791
sg34
I1111258
sg35
I1
sg36
I8682716
sg37
F0.002547820290333117
sg38
F0.33275181305445195
sg39
I19250000
sg40
F0.003378666306717852
sg41
F0.0
ssS'BLAKE JR. NORMAN P'
p302
(dp303
g3
g6
sg4
F0.0
sg5
g6
sg7
I1279
sg8
F0.0
sg9
F0.0
sg10
I00
sg11
I-113784
sg12
g6
sg14
g6
sg15
F0.0
sg16
F88.9632525410477
sg17
g6
sg18
g6
sg19
g6
sg20
g6
sg21
g6
sg22
F-88.9632525410477
sg23
I113784
sg24
F0.0
sg25
F0.0
sg26
g6
sg27
g6
sg28
g6
sg29
F0.0
sg30
g6
sg31
F0.0
sg32
g6
sg33
F0.0
sg34
g6
sg35
I0
sg36
I1279
sg37
F0.0
sg38
F1280.0
sg39
g6
sg40
F1.0
sg41
F0.0
ssS'SHERRICK JEFFREY B'
p304
(dp305
g3
I613
sg4
F0.0
sg5
g6
sg7
g6
sg8
F0.0
sg9
F0.0
sg10
I00
sg11
g6
sg12
S'jeffrey.sherrick@enron.com'
p306
sg14
g6
sg15
F0.22155857564770573
sg16
F0.0
sg17
g6
sg18
I583
sg19
g6
sg20
I25
sg21
g6
sg22
F0.0
sg23
g6
sg24
F0.0
sg25
F0.7784414243522942
sg26
g6
sg27
I1832468
sg28
I39
sg29
F0.0
sg30
I18
sg31
F0.72
sg32
I405999
sg33
F0.0636215334420881
sg34
g6
sg35
I1
sg36
g6
sg37
F0.0
sg38
F5.457118237743722e-07
sg39
I1426469
sg40
F0.0
sg41
F0.0
ssS'PRENTICE JAMES'
p307
(dp308
g3
g6
sg4
F0.0
sg5
I564348
sg7
g6
sg8
F0.0
sg9
F0.0
sg10
I00
sg11
g6
sg12
S'james.prentice@enron.com'
p309
sg14
g6
sg15
F0.19068618497954412
sg16
F0.0
sg17
g6
sg18
g6
sg19
g6
sg20
g6
sg21
g6
sg22
F0.0
sg23
g6
sg24
F0.0
sg25
F0.8093138150204559
sg26
g6
sg27
I1095040
sg28
g6
sg29
F0.0
sg30
g6
sg31
F0.0
sg32
I208809
sg33
F0.0
sg34
g6
sg35
I1
sg36
I564348
sg37
F0.0
sg38
F0.5153679177309343
sg39
I886231
sg40
F0.0
sg41
F1.0
ssS'GRAY RODNEY'
p310
(dp311
g3
g6
sg4
F0.0
sg5
I93585
sg7
g6
sg8
F0.3188614216270239
sg9
F0.0
sg10
I00
sg11
g6
sg12
g6
sg14
I365625
sg15
F0.0
sg16
F0.0
sg17
g6
sg18
g6
sg19
g6
sg20
g6
sg21
I680833
sg22
F0.0
sg23
g6
sg24
F0.005768938951282772
sg25
F0.0
sg26
g6
sg27
g6
sg28
g6
sg29
F0.0
sg30
g6
sg31
F0.0
sg32
g6
sg33
F0.0
sg34
I6615
sg35
I0
sg36
I1146658
sg37
F0.5937541969793958
sg38
F1146659.0
sg39
g6
sg40
F0.0
sg41
F0.08161544244229753
ssS'PICKERING MARK R'
p312
(dp313
g3
I898
sg4
F0.21634251346732147
sg5
g6
sg7
I31653
sg8
F0.0
sg9
F0.28845668462309526
sg10
I00
sg11
g6
sg12
S'mark.pickering@enron.com'
p314
sg14
g6
sg15
F0.0
sg16
F0.0
sg17
g6
sg18
I728
sg19
I400000
sg20
I67
sg21
g6
sg22
F0.0
sg23
g6
sg24
F0.47237450331364617
sg25
F1.0
sg26
I300000
sg27
I28798
sg28
I7
sg29
F0.0
sg30
I0
sg31
F0.0
sg32
g6
sg33
F0.0077951002227171495
sg34
I655037
sg35
I1
sg36
I1386690
sg37
F0.0
sg38
F48.150664953644224
sg39
I28798
sg40
F0.022826298595937086
sg41
F0.0
ssS'NOLES JAMES L'
p315
(dp316
g3
g6
sg4
F0.0
sg5
I774401
sg7
g6
sg8
F0.0
sg9
F0.0
sg10
I00
sg11
g6
sg12
g6
sg14
g6
sg15
F1.2564543469711558
sg16
F0.0
sg17
I-94556
sg18
g6
sg19
g6
sg20
g6
sg21
g6
sg22
F0.0
sg23
g6
sg24
F0.0
sg25
F0.0
sg26
g6
sg27
I368705
sg28
g6
sg29
F-0.2564543469711558
sg30
g6
sg31
F0.0
sg32
I463261
sg33
F0.0
sg34
g6
sg35
I0
sg36
I774401
sg37
F0.0
sg38
F2.10032383525085
sg39
g6
sg40
F0.0
sg41
F1.0
ssS'KEAN STEVEN J'
p317
(dp318
g3
I12754
sg4
F0.5722388616566773
sg5
g6
sg7
I41953
sg8
F0.1716716584970032
sg9
F0.0
sg10
I00
sg11
g6
sg12
S'steven.kean@enron.com'
p319
sg14
I300000
sg15
F0.6714062989039662
sg16
F0.0
sg17
g6
sg18
I3639
sg19
g6
sg20
I6759
sg21
I1231
sg22
F0.0
sg23
g6
sg24
F0.23137791684453757
sg25
F0.32859370109603386
sg26
I1000000
sg27
I6153642
sg28
I140
sg29
F0.0
sg30
I387
sg31
F0.05725699067909454
sg32
I4131594
sg33
F0.010976948408342482
sg34
I404338
sg35
I1
sg36
I1747522
sg37
F0.0007044260386993697
sg38
F0.2839818624512342
sg39
I2022048
sg40
F0.02400713696308258
sg41
F0.0
ssS'FOWLER PEGGY'
p320
(dp321
g3
I517
sg4
F0.0
sg5
g6
sg7
g6
sg8
F0.0
sg9
F0.0
sg10
I00
sg11
g6
sg12
S'kulvinder.fowler@enron.com'
p322
sg14
g6
sg15
F0.29721214719421374
sg16
F0.0
sg17
g6
sg18
I10
sg19
g6
sg20
I36
sg21
g6
sg22
F0.0
sg23
g6
sg24
F0.0
sg25
F0.7027878528057863
sg26
g6
sg27
I1884748
sg28
I0
sg29
F0.0
sg30
I0
sg31
F0.0
sg32
I560170
sg33
F0.0
sg34
g6
sg35
I1
sg36
g6
sg37
F0.0
sg38
F5.305746282396224e-07
sg39
I1324578
sg40
F0.0
sg41
F0.0
ssS'WASAFF GEORGE'
p323
(dp324
g3
I400
sg4
F0.3141933207333755
sg5
I831299
sg7
g6
sg8
F0.1933497358359234
sg9
F0.0
sg10
I00
sg11
I-583325
sg12
S'george.wasaff@enron.com'
p325
sg14
I200000
sg15
F0.1887579768209618
sg16
F0.0
sg17
g6
sg18
I337
sg19
g6
sg20
I30
sg21
I1425
sg22
F-0.5639286732824501
sg23
g6
sg24
F0.2513507895919837
sg25
F0.8112420231790382
sg26
I325000
sg27
I2056427
sg28
I22
sg29
F0.0
sg30
I7
sg31
F0.23333333333333334
sg32
I388167
sg33
F0.055
sg34
I259996
sg35
I1
sg36
I1034395
sg37
F0.0013776168678309544
sg38
F0.5030061835376682
sg39
I1668260
sg40
F0.0
sg41
F0.8036572102533365
ssS'WHITE JR THOMAS E'
p326
(dp327
g3
g6
sg4
F0.23263520370313887
sg5
g6
sg7
I81353
sg8
F0.0
sg9
F0.0
sg10
I00
sg11
g6
sg12
S'thomas.white@enron.com'
p328
sg14
g6
sg15
F0.9143529803607644
sg16
F0.0
sg17
g6
sg18
g6
sg19
g6
sg20
g6
sg21
I1085463
sg22
F0.0
sg23
g6
sg24
F0.1641592899766796
sg25
F0.08564701963923563
sg26
I450000
sg27
I15144123
sg28
g6
sg29
F0.0
sg30
g6
sg31
F0.0
sg32
I13847074
sg33
F0.0
sg34
I317543
sg35
I1
sg36
I1934359
sg37
F0.5611486802604894
sg38
F0.1277300687712277
sg39
I1297049
sg40
F0.042056826059692125
sg41
F0.0
ssS'CHRISTODOULOU DIOMEDES'
p329
(dp330
g3
g6
sg4
F0.0
sg5
g6
sg7
g6
sg8
F0.0
sg9
F0.0
sg10
I00
sg11
g6
sg12
S'diomedes.christodoulou@enron.com'
p331
sg14
g6
sg15
F0.15642447989720107
sg16
F0.0
sg17
g6
sg18
g6
sg19
g6
sg20
g6
sg21
g6
sg22
F0.0
sg23
g6
sg24
F0.0
sg25
F0.8435755201027989
sg26
g6
sg27
I6077885
sg28
g6
sg29
F0.0
sg30
g6
sg31
F0.0
sg32
I950730
sg33
F0.0
sg34
g6
sg35
I1
sg36
g6
sg37
F0.0
sg38
F1.6453089116840953e-07
sg39
I5127155
sg40
F0.0
sg41
F0.0
ssS'ALLEN PHILLIP K'
p332
(dp333
g3
I2902
sg4
F0.9309965431596617
sg5
I2869717
sg7
I13868
sg8
F0.06796943744617502
sg9
F0.0
sg10
I00
sg11
I-3081055
sg12
S'phillip.allen@enron.com'
p334
sg14
I304805
sg15
F0.07286730988163911
sg16
F0.0
sg17
I-126027
sg18
I1407
sg19
g6
sg20
I2195
sg21
I152
sg22
F-0.6870542644993514
sg23
g6
sg24
F0.04503458847276874
sg25
F1.0
sg26
I4175000
sg27
I1729541
sg28
I47
sg29
F-0.07286730988163911
sg30
I65
sg31
F0.029612756264236904
sg32
I126027
sg33
F0.016195727084769126
sg34
I201955
sg35
I1
sg36
I4484442
sg37
F3.38949639665314e-05
sg38
F2.59285001462815
sg39
I1729541
sg40
F0.0030924694755780093
sg41
F0.6399273309812012
ssS'SHARP VICTORIA T'
p335
(dp336
g3
I3136
sg4
F0.38058725882661143
sg5
I187469
sg7
I116337
sg8
F0.2677799266862077
sg9
F0.0
sg10
I00
sg11
g6
sg12
S'vicki.sharp@enron.com'
p337
sg14
I422158
sg15
F0.43118291320608093
sg16
F0.0
sg17
g6
sg18
I2477
sg19
g6
sg20
I136
sg21
I2401
sg22
F0.0
sg23
g6
sg24
F0.15740200988131386
sg25
F0.5688170867939191
sg26
I600000
sg27
I494136
sg28
I24
sg29
F0.0
sg30
I6
sg31
F0.04411764705882353
sg32
I213063
sg33
F0.007653061224489796
sg34
I248146
sg35
I1
sg36
I1576511
sg37
F0.00152298334740449
sg38
F3.190435041294216
sg39
I281073
sg40
F0.07379396655018582
sg41
F0.1189138547082767
ssS'JAEDICKE ROBERT'
p338
(dp339
g3
g6
sg4
F0.0
sg5
g6
sg7
g6
sg8
F0.0
sg9
F0.0
sg10
I00
sg11
I-25000
sg12
g6
sg14
g6
sg15
F0.10212623045744065
sg16
F1.2985074626865671
sg17
I-44093
sg18
g6
sg19
g6
sg20
g6
sg21
g6
sg22
F-0.29850746268656714
sg23
I108750
sg24
F0.0
sg25
F1.0
sg26
g6
sg27
I431750
sg28
g6
sg29
F-0.10212623045744065
sg30
g6
sg31
F0.0
sg32
I44093
sg33
F0.0
sg34
g6
sg35
I0
sg36
I83750
sg37
F0.0
sg38
F0.19397986339348375
sg39
I431750
sg40
F0.0
sg41
F0.0
ssS'WINOKUR JR. HERBERT S'
p340
(dp341
g3
g6
sg4
F0.0
sg5
g6
sg7
I1413
sg8
F0.0
sg9
F0.0
sg10
I00
sg11
I-25000
sg12
g6
sg14
g6
sg15
F0.0
sg16
F1.2775202371987953
sg17
g6
sg18
g6
sg19
g6
sg20
g6
sg21
g6
sg22
F-0.2941453313253012
sg23
I108579
sg24
F0.0
sg25
F0.0
sg26
g6
sg27
g6
sg28
g6
sg29
F0.0
sg30
g6
sg31
F0.0
sg32
g6
sg33
F0.0
sg34
g6
sg35
I0
sg36
I84992
sg37
F0.0
sg38
F84993.0
sg39
g6
sg40
F0.016625094126506024
sg41
F0.0
ssS'BROWN MICHAEL'
p342
(dp343
g3
I1486
sg4
F0.0
sg5
g6
sg7
I49288
sg8
F0.0
sg9
F0.0
sg10
I00
sg11
g6
sg12
S'michael.brown@enron.com'
p344
sg14
g6
sg15
F0.0
sg16
F0.0
sg17
g6
sg18
I761
sg19
g6
sg20
I41
sg21
g6
sg22
F0.0
sg23
g6
sg24
F0.0
sg25
F0.0
sg26
g6
sg27
g6
sg28
I13
sg29
F0.0
sg30
I1
sg31
F0.024390243902439025
sg32
g6
sg33
F0.008748317631224764
sg34
g6
sg35
I1
sg36
I49288
sg37
F0.0
sg38
F49289.0
sg39
g6
sg40
F1.0
sg41
F0.0
ssS'BADUM JAMES P'
p345
(dp346
g3
g6
sg4
F0.0
sg5
I178980
sg7
I3486
sg8
F0.0
sg9
F0.0
sg10
I00
sg11
g6
sg12
g6
sg14
g6
sg15
F0.0
sg16
F0.0
sg17
g6
sg18
g6
sg19
g6
sg20
g6
sg21
g6
sg22
F0.0
sg23
g6
sg24
F0.0
sg25
F1.0
sg26
g6
sg27
I257817
sg28
g6
sg29
F0.0
sg30
g6
sg31
F0.0
sg32
g6
sg33
F0.0
sg34
g6
sg35
I0
sg36
I182466
sg37
F0.0
sg38
F0.7077356895174115
sg39
I257817
sg40
F0.019104929137483146
sg41
F0.9808950708625168
ssS'HUGHES JAMES A'
p347
(dp348
g3
I719
sg4
F0.0
sg5
g6
sg7
g6
sg8
F0.0
sg9
F0.0
sg10
I00
sg11
g6
sg12
S'james.hughes@enron.com'
p349
sg14
g6
sg15
F0.3249552483293008
sg16
F0.0
sg17
g6
sg18
I589
sg19
g6
sg20
I34
sg21
g6
sg22
F0.0
sg23
g6
sg24
F0.0
sg25
F0.6750447516706992
sg26
g6
sg27
I1118394
sg28
I35
sg29
F0.0
sg30
I5
sg31
F0.14705882352941177
sg32
I363428
sg33
F0.048678720445062586
sg34
g6
sg35
I1
sg36
g6
sg37
F0.0
sg38
F8.941384752256582e-07
sg39
I754966
sg40
F0.0
sg41
F0.0
ssS'REYNOLDS LAWRENCE'
p350
(dp351
g3
g6
sg4
F0.2535014893212498
sg5
I51365
sg7
I8409
sg8
F0.39609607706445277
sg9
F0.0
sg10
I00
sg11
I-200000
sg12
g6
sg14
I156250
sg15
F0.047723401670009956
sg16
F0.0
sg17
I-140264
sg18
g6
sg19
g6
sg20
g6
sg21
I202052
sg22
F-0.5070029786424995
sg23
g6
sg24
F0.1936726028265416
sg25
F0.9854996256416853
sg26
I100000
sg27
I4221891
sg28
g6
sg29
F-0.033223027311695165
sg30
g6
sg31
F0.0
sg32
I201483
sg33
F0.0
sg34
I76399
sg35
I0
sg36
I394475
sg37
F0.5122048292033715
sg38
F0.09343583398154193
sg39
I4160672
sg40
F0.021316940237023893
sg41
F0.13021103998985994
ssS'DIMICHELE RICHARD G'
p352
(dp353
g3
g6
sg4
F0.42227037042823706
sg5
g6
sg7
I35812
sg8
F0.2934196341365057
sg9
F0.0
sg10
I00
sg11
g6
sg12
S'richard.dimichele@enron.com'
p354
sg14
I694862
sg15
F0.015151515151515152
sg16
F0.0
sg17
g6
sg18
g6
sg19
g6
sg20
g6
sg21
I374689
sg22
F0.0
sg23
g6
sg24
F0.11096758610409556
sg25
F0.9848484848484849
sg26
I1000000
sg27
I8317782
sg28
g6
sg29
F0.0
sg30
g6
sg31
F0.0
sg32
I126027
sg33
F0.0
sg34
I262788
sg35
I1
sg36
I2368151
sg37
F0.1582200628253857
sg38
F0.28470951935149064
sg39
I8191755
sg40
F0.015122346505776025
sg41
F0.0
ssS'BHATNAGAR SANJAY'
p355
(dp356
g3
I523
sg4
F0.0
sg5
g6
sg7
g6
sg8
F0.0
sg9
F0.0
sg10
I00
sg11
g6
sg12
S'sanjay.bhatnagar@enron.com'
p357
sg14
g6
sg15
F0.0
sg16
F0.00891960489871761
sg17
I15456290
sg18
I463
sg19
g6
sg20
I29
sg21
I137864
sg22
F0.0
sg23
I137864
sg24
F0.0
sg25
F0.0
sg26
g6
sS'total_stock_value'
p358
S'NaN'
p359
sg28
I0
sg29
F0.0
sg30
I1
sg31
F0.034482758620689655
sg32
I-2604490
sg33
F0.0
sg34
g6
sg35
I1
sg36
I15456290
sg37
F0.00891960489871761
sg38
F15456291.0
sg39
I2604490
sg40
F0.0
sg41
F0.0
ssS'CARTER REBECCA C'
p360
(dp361
g3
I312
sg4
F0.6281972623163308
sg5
g6
sg7
g6
sg8
F0.1570493155790827
sg9
F0.0
sg10
I00
sg11
I-159792
sg12
S'rebecca.carter@enron.com'
p362
sg14
I75000
sg15
F0.0
sg16
F0.0
sg17
I-307301
sg18
I196
sg19
g6
sg20
I15
sg21
I540
sg22
F-0.33460298980017045
sg23
g6
sg24
F0.5482256568325875
sg25
F0.0
sg26
I300000
sg27
g6
sg28
I29
sg29
F0.0
sg30
I7
sg31
F0.4666666666666667
sg32
I307301
sg33
F0.09294871794871795
sg34
I261809
sg35
I1
sg36
I477557
sg37
F0.0011307550721693955
sg38
F477558.0
sg39
g6
sg40
F0.0
sg41
F0.0
ssS'BUCHANAN HAROLD G'
p363
(dp364
g3
I1088
sg4
F0.47409677453000415
sg5
g6
sg7
I600
sg8
F0.2890141347212358
sg9
F0.0
sg10
I00
sg11
g6
sg12
S'john.buchanan@enron.com'
p365
sg14
I304805
sg15
F0.18633816491786634
sg16
F0.0
sg17
g6
sg18
I23
sg19
g6
sg20
I125
sg21
I1215
sg22
F0.0
sg23
g6
sg24
F0.23516811945721608
sg25
F0.8136618350821336
sg26
I500000
sg27
I1014505
sg28
I0
sg29
F0.0
sg30
I0
sg31
F0.0
sg32
I189041
sg33
F0.0
sg34
I248017
sg35
I1
sg36
I1054637
sg37
F0.0011520551621079101
sg38
F1.0395581691976192
sg39
I825464
sg40
F0.000568916129436005
sg41
F0.0
ssS'YEAP SOON'
p366
(dp367
g3
g6
sg4
F0.0
sg5
g6
sg7
I55097
sg8
F0.0
sg9
F0.0
sg10
I00
sg11
g6
sg12
g6
sg14
g6
sg15
F0.0
sg16
F0.0
sg17
g6
sg18
g6
sg19
g6
sg20
g6
sg21
g6
sg22
F0.0
sg23
g6
sg24
F0.0
sg25
F1.0
sg26
g6
sg27
I192758
sg28
g6
sg29
F0.0
sg30
g6
sg31
F0.0
sg32
g6
sg33
F0.0
sg34
g6
sg35
I0
sg36
I55097
sg37
F0.0
sg38
F0.28583879351936875
sg39
I192758
sg40
F1.0
sg41
F0.0
ssS'MURRAY JULIA H'
p368
(dp369
g3
I2192
sg4
F0.4924931728133919
sg5
g6
sg7
I57580
sg8
F0.15390411650418495
sg9
F0.0
sg10
I00
sg11
g6
sg12
S'julia.murray@enron.com'
p370
sg14
I125000
sg15
F0.3297001812670618
sg16
F0.0
sg17
g6
sg18
I395
sg19
g6
sg20
I45
sg21
I330
sg22
F0.0
sg23
g6
sg24
F0.2823020115883644
sg25
F0.6702998187329382
sg26
I400000
sg27
I597461
sg28
I11
sg29
F0.0
sg30
I2
sg31
F0.044444444444444446
sg32
I196983
sg33
F0.005018248175182482
sg34
I229284
sg35
I1
sg36
I812194
sg37
F0.0004063068675710483
sg38
F1.359408631846042
sg39
I400478
sg40
F0.07089439222648776
sg41
F0.0
ssS'GARLAND C KEVIN'
p371
(dp372
g3
I209
sg4
F0.5426216541789208
sg5
g6
sg7
I48405
sg8
F0.23958597329407733
sg9
F0.0
sg10
I00
sg11
g6
sg12
S'kevin.garland@enron.com'
p373
sg14
I375304
sg15
F0.2900252523843585
sg16
F0.0
sg17
g6
sg18
I178
sg19
g6
sg20
I44
sg21
I60814
sg22
F0.0
sg23
g6
sg24
F0.14806932023551056
sg25
F0.7099747476156415
sg26
I850000
sg27
I896153
sg28
I10
sg29
F0.0
sg30
I27
sg31
F0.6136363636363636
sg32
I259907
sg33
F0.04784688995215311
sg34
I231946
sg35
I1
sg36
I1566469
sg37
F0.038822345032043404
sg38
F1.7479919745936525
sg39
I636246
sg40
F0.03090070725944784
sg41
F0.0
ssS'DODSON KEITH'
p374
(dp375
g3
I176
sg4
F0.21879033946883958
sg5
g6
sg7
I28164
sg8
F0.0
sg9
F0.0
sg10
I00
sg11
g6
sg12
S'keith.dodson@enron.com'
p376
sg14
g6
sg15
F0.0
sg16
F0.0
sg17
g6
sg18
I114
sg19
g6
sg20
I14
sg21
I774
sg22
F0.0
sg23
g6
sg24
F0.6907617341947422
sg25
F0.0
sg26
I70000
sg27
g6
sg28
I10
sg29
F0.0
sg30
I3
sg31
F0.21428571428571427
sg32
g6
sg33
F0.056818181818181816
sg34
I221003
sg35
I1
sg36
I319941
sg37
F0.0024191960392697404
sg38
F319942.0
sg39
g6
sg40
F0.08802873029714854
sg41
F0.0
ssS'YEAGER F SCOTT'
p377
(dp378
g3
g6
sg4
F0.0
sg5
g6
sg7
I53947
sg8
F0.0
sg9
F0.0
sg10
I01
sg11
g6
sg12
S'scott.yeager@enron.com'
p379
sg14
g6
sg15
F0.30090692633371247
sg16
F0.0
sg17
g6
sg18
g6
sg19
g6
sg20
g6
sg21
I147950
sg22
F0.0
sg23
g6
sg24
F0.4396419650291424
sg25
F0.6990930736662875
sg26
g6
sg27
I11884758
sg28
g6
sg29
F0.0
sg30
g6
sg31
F0.0
sg32
I3576206
sg33
F0.0
sg34
I158403
sg35
I1
sg36
I360300
sg37
F0.4106300305301138
sg38
F0.030316222651212362
sg39
I8308552
sg40
F0.14972800444074383
sg41
F0.0
ssS'HIRKO JOSEPH'
p380
(dp381
g3
g6
sg4
F0.0
sg5
I10259
sg7
I77978
sg8
F0.0
sg9
F0.0
sg10
I01
sg11
g6
sg12
S'joe.hirko@enron.com'
p382
sg14
g6
sg15
F0.0
sg16
F0.0
sg17
g6
sg18
g6
sg19
g6
sg20
g6
sg21
I2856
sg22
F0.0
sg23
g6
sg24
F0.0
sg25
F1.0
sg26
g6
sg27
I30766064
sg28
g6
sg29
F0.0
sg30
g6
sg31
F0.0
sg32
g6
sg33
F0.0
sg34
g6
sg35
I1
sg36
I91093
sg37
F0.03135257374331727
sg38
F0.0029608596354457417
sg39
I30766064
sg40
F0.8560262588782892
sg41
F0.1126211673783935
ssS'DIETRICH JANET R'
p383
(dp384
g3
I2572
sg4
F0.4253919277627788
sg5
g6
sg7
I3475
sg8
F0.3944914581300905
sg9
F0.0
sg10
I00
sg11
g6
sg12
S'janet.dietrich@enron.com'
p385
sg14
I556416
sg15
F0.16892938506353858
sg16
F0.0
sg17
g6
sg18
I1902
sg19
g6
sg20
I63
sg21
I473
sg22
F0.0
sg23
g6
sg24
F0.1773175352224516
sg25
F0.8310706149364614
sg26
I600000
sg27
I1865087
sg28
I305
sg29
F0.0
sg30
I14
sg31
F0.2222222222222222
sg32
I315068
sg33
F0.11858475894245724
sg34
I250100
sg35
I1
sg36
I1410464
sg37
F0.00033535063638632395
sg38
F0.7562458178917026
sg39
I1550019
sg40
F0.0024637282482927606
sg41
F0.0
ssS'DERRICK JR. JAMES V'
p386
(dp387
g3
I2181
sg4
F1.4519556935720106
sg5
g6
sg7
I51124
sg8
F0.8784331946110664
sg9
F0.0
sg10
I00
sg11
I-1284000
sg12
S'james.derrick@enron.com'
p388
sg14
I484000
sg15
F0.20237744642638578
sg16
F0.0
sg17
I-1787380
sg18
I1401
sg19
g6
sg20
I909
sg21
I7482
sg22
F-2.330388888183077
sg23
g6
sg24
F0.8936333557781484
sg25
F1.0
sg26
I800000
sg27
I8831913
sg28
I64
sg29
F-0.20237744642638578
sg30
I20
sg31
F0.022002200220022004
sg32
I1787380
sg33
F0.029344337459880788
sg34
I492375
sg35
I1
sg36
I550981
sg37
F0.01357941562413223
sg38
F0.06238534478483373
sg39
I8831913
sg40
F0.09278722859771935
sg41
F0.0
ssS'FREVERT MARK A'
p389
(dp390
g3
I3275
sg4
F0.1159250266482655
sg5
I6426990
sg7
I86987
sg8
F0.09372602163276922
sg9
F0.1159250266482655
sg10
I00
sg11
I-3367011
sg12
S'mark.frevert@enron.com'
p391
sg14
I1617011
sg15
F0.28645971857147207
sg16
F0.0
sg17
g6
sg18
I2979
sg19
I2000000
sg20
I21
sg21
I7427621
sg22
F-0.19516041995000152
sg23
g6
sg24
F0.06149428518599881
sg25
F0.713540281428528
sg26
I2000000
sg27
I14622185
sg28
I242
sg29
F0.0
sg30
I6
sg31
F0.2857142857142857
sg32
I4188667
sg33
F0.07389312977099237
sg34
I1060932
sg35
I1
sg36
I17252530
sg37
F0.4305235811791082
sg38
F1.1798872617268035
sg39
I10433518
sg40
F0.005041985146526336
sg41
F0.37252449350906797
ssS'PAI LOU L'
p392
(dp393
g3
g6
sg4
F0.3201656665224854
sg5
g6
sg7
I32047
sg8
F0.0
sg9
F0.0
sg10
I00
sg11
g6
sg12
S'lou.pai@enron.com'
p394
sg14
g6
sg15
F0.35493273344912846
sg16
F0.0
sg17
g6
sg18
g6
sg19
g6
sg20
g6
sg21
I1829457
sg22
F0.0
sg23
g6
sg24
F0.08384466458324195
sg25
F0.6450672665508715
sg26
I1000000
sg27
I23817930
sg28
g6
sg29
F0.0
sg30
g6
sg31
F0.0
sg32
I8453763
sg33
F0.0
sg34
I261879
sg35
I1
sg36
I3123383
sg37
F0.5857293197792266
sg38
F0.13113582367838753
sg39
I15364167
sg40
F0.01026034911504609
sg41
F0.0
ssS'BAY FRANKLIN R'
p395
(dp396
g3
g6
sg4
F0.48326921961686414
sg5
I260455
sg7
I129142
sg8
F0.0
sg9
F0.0
sg10
I00
sg11
I-201641
sg12
S'frank.bay@enron.com'
p397
sg14
g6
sg15
F2.3137080648744726
sg16
F0.0
sg17
I-82782
sg18
g6
sg19
g6
sg20
g6
sg21
I69
sg22
F-0.24361722178191025
sg23
g6
sg24
F0.2895640428369836
sg25
F0.0
sg26
I400000
sg27
I63014
sg28
g6
sg29
F-1.3137080648744723
sg30
g6
sg31
F0.0
sg32
I145796
sg33
F0.0
sg34
I239671
sg35
I1
sg36
I827696
sg37
F8.336394038390907e-05
sg38
F13.134920257081648
sg39
g6
sg40
F0.15602588389940267
sg41
F0.3146747114882759
ssS'HAYSLETT RODERICK J'
p398
(dp399
g3
I2649
sg4
F0.0
sg5
g6
sg7
g6
sg8
F0.0
sg9
F0.0
sg10
I00
sg11
g6
sg12
S'rod.hayslett@enron.com'
p400
sg14
g6
sg15
F1.0
sg16
F0.0
sg17
g6
sg18
I571
sg19
g6
sg20
I1061
sg21
g6
sg22
F0.0
sg23
g6
sg24
F0.0
sg25
F0.0
sg26
g6
sg27
I346663
sg28
I35
sg29
F0.0
sg30
I38
sg31
F0.03581526861451461
sg32
I346663
sg33
F0.01321253303133258
sg34
g6
sg35
I1
sg36
g6
sg37
F0.0
sg38
F2.8846375741351856e-06
sg39
g6
sg40
F0.0
sg41
F0.0
ssS'FUGH JOHN L'
p401
(dp402
g3
g6
sg4
F0.0
sg5
I50591
sg7
g6
sg8
F0.0
sg9
F0.0
sg10
I00
sg11
g6
sg12
g6
sg14
g6
sg15
F0.0
sg16
F0.0
sg17
g6
sg18
g6
sg19
g6
sg20
g6
sg21
g6
sg22
F0.0
sg23
g6
sg24
F0.0
sg25
F1.0
sg26
g6
sg27
I176378
sg28
g6
sg29
F0.0
sg30
g6
sg31
F0.0
sg32
g6
sg33
F0.0
sg34
g6
sg35
I0
sg36
I50591
sg37
F0.0
sg38
F0.2868368683346657
sg39
I176378
sg40
F0.0
sg41
F1.0
ssS'FALLON JAMES B'
p403
(dp404
g3
I1755
sg4
F0.6800241544579664
sg5
g6
sg7
I95924
sg8
F0.10182600085955053
sg9
F0.0
sg10
I00
sg11
g6
sg12
S'jim.fallon@enron.com'
p405
sg14
I374347
sg15
F0.5968712900322801
sg16
F0.0
sg17
g6
sg18
I1604
sg19
g6
sg20
I75
sg21
I401481
sg22
F0.0
sg23
g6
sg24
F0.08285087886321722
sg25
F0.40312870996771993
sg26
I2500000
sg27
I2332399
sg28
I42
sg29
F0.0
sg30
I37
sg31
F0.49333333333333335
sg32
I1392142
sg33
F0.023931623931623933
sg34
I304588
sg35
I1
sg36
I3676340
sg37
F0.10920671102237552
sg38
F1.57620519636426
sg39
I940257
sg40
F0.026092254796890386
sg41
F0.0
ssS'KOENIG MARK E'
p406
(dp407
g3
I2374
sg4
F0.44096682606567505
sg5
g6
sg7
I127017
sg8
F0.18898578259957505
sg9
F0.0
sg10
I01
sg11
g6
sg12
S'mark.koenig@enron.com'
p408
sg14
I300000
sg15
F0.6501470009973672
sg16
F0.0
sg17
g6
sg18
I2271
sg19
g6
sg20
I61
sg21
I150458
sg22
F0.0
sg23
g6
sg24
F0.19525129124535962
sg25
F0.3498529990026327
sg26
I700000
sg27
I1920055
sg28
I53
sg29
F0.0
sg30
I15
sg31
F0.2459016393442623
sg32
I1248318
sg33
F0.02232518955349621
sg34
I309946
sg35
I1
sg36
I1587421
sg37
F0.0947814095945562
sg38
F0.8267581778864783
sg39
I671737
sg40
F0.08001469049483408
sg41
F0.0
ssS'SAVAGE FRANK'
p409
(dp410
g3
g6
sg4
F0.0
sg5
g6
sg7
g6
sg8
F0.0
sg9
F0.0
sg10
I00
sg11
I-121284
sg12
g6
sg14
g6
sg15
F0.0
sg16
F33.3424
sg17
g6
sg18
g6
sg19
g6
sg20
g6
sg21
g6
sg22
F-32.3424
sg23
I125034
sg24
F0.0
sg25
F0.0
sg26
g6
sg27
g6
sg28
g6
sg29
F0.0
sg30
g6
sg31
F0.0
sg32
g6
sg33
F0.0
sg34
g6
sg35
I0
sg36
I3750
sg37
F0.0
sg38
F3751.0
sg39
g6
sg40
F0.0
sg41
F0.0
ssS'IZZO LAWRENCE L'
p411
(dp412
g3
I496
sg4
F0.0
sg5
g6
sg7
I28093
sg8
F0.15786049274700495
sg9
F0.0
sg10
I00
sg11
g6
sg12
S'larry.izzo@enron.com'
p413
sg14
I312500
sg15
F0.6279760411547806
sg16
F0.0
sg17
g6
sg18
I437
sg19
g6
sg20
I19
sg21
I1553729
sg22
F0.0
sg23
g6
sg24
F0.043076466107225916
sg25
F0.3720239588452194
sg26
g6
sg27
I5819980
sg28
I28
sg29
F0.0
sg30
I5
sg31
F0.2631578947368421
sg32
I3654808
sg33
F0.056451612903225805
sg34
I85274
sg35
I1
sg36
I1979596
sg37
F0.784871761712996
sg38
F0.340138051997077
sg39
I2165172
sg40
F0.014191279432773152
sg41
F0.0
ssS'TILNEY ELIZABETH A'
p414
(dp415
g3
I460
sg4
F0.7511398547295521
sg5
g6
sg7
g6
sg8
F0.6885448668354227
sg9
F0.0
sg10
I00
sg11
I-575000
sg12
S'elizabeth.tilney@enron.com'
p416
sg14
I275000
sg15
F0.4938110102205229
sg16
F0.0
sg17
g6
sg18
I379
sg19
g6
sg20
I19
sg21
I152055
sg22
F-1.4396847215649748
sg23
g6
sg24
F0.6192847646303266
sg25
F0.5061889897794771
sg26
I300000
sg27
I1168042
sg28
I10
sg29
F0.0
sg30
I11
sg31
F0.5789473684210527
sg32
I576792
sg33
F0.021739130434782608
sg34
I247338
sg35
I1
sg36
I399393
sg37
F0.3807152353696735
sg38
F0.3419343294724595
sg39
I591250
sg40
F0.0
sg41
F0.0
ssS'MARTIN AMANDA K'
p417
(dp418
g3
I1522
sg4
F0.0
sg5
I85430
sg7
I8211
sg8
F0.6120404671526735
sg9
F0.0
sg10
I00
sg11
g6
sg12
S'a..martin@enron.com'
p419
sg14
I5145434
sg15
F0.0
sg16
F0.0
sg17
g6
sg18
I477
sg19
g6
sg20
I230
sg21
I2818454
sg22
F0.0
sg23
g6
sg24
F0.04157087366076144
sg25
F1.0
sg26
g6
sg27
I2070306
sg28
I8
sg29
F0.0
sg30
I0
sg31
F0.0
sg32
g6
sg33
F0.005256241787122208
sg34
I349487
sg35
I1
sg36
I8407016
sg37
F0.3352502243364352
sg38
F4.060758621788942
sg39
I2070306
sg40
F0.0009766842361189749
sg41
F0.010161750614010964
ssS'BUY RICHARD B'
p420
(dp421
g3
I3523
sg4
F0.38205171961479
sg5
I649584
sg7
g6
sg8
F0.32680788996231275
sg9
F0.0
sg10
I00
sg11
I-694862
sg12
S'rick.buy@enron.com'
p422
sg14
I769862
sg15
F0.26176944493637627
sg16
F0.0
sg17
g6
sg18
I2333
sg19
g6
sg20
I1053
sg21
I400572
sg22
F-0.29497024666108024
sg23
g6
sg24
F0.14031740856865596
sg25
F0.7382305550636237
sg26
I900000
sg27
I3444470
sg28
I156
sg29
F0.0
sg30
I71
sg31
F0.06742640075973409
sg32
I901657
sg33
F0.04428044280442804
sg34
I330546
sg35
I1
sg36
I2355702
sg37
F0.17004357936615072
sg38
F0.6839085014796176
sg39
I2542813
sg40
F0.0
sg41
F0.27574964914917083
ssS'GRAMM WENDY L'
p423
(dp424
g3
g6
sg4
F0.0
sg5
g6
sg7
g6
sg8
F0.0
sg9
F0.0
sg10
I00
sg11
g6
sg12
g6
sg14
g6
sg15
F0.0
sg16
F1.0
sg17
g6
sg18
g6
sg19
g6
sg20
g6
sg21
g6
sg22
F0.0
sg23
I119292
sg24
F0.0
sg25
F0.0
sg26
g6
sg27
g6
sg28
g6
sg29
F0.0
sg30
g6
sg31
F0.0
sg32
g6
sg33
F0.0
sg34
g6
sg35
I0
sg36
I119292
sg37
F0.0
sg38
F119293.0
sg39
g6
sg40
F0.0
sg41
F0.0
ssS'CAUSEY RICHARD A'
p425
(dp426
g3
I1892
sg4
F0.5351147660638778
sg5
g6
sg7
I30674
sg8
F0.18729016812235721
sg9
F0.0
sg10
I01
sg11
I-235000
sg12
S'richard.causey@enron.com'
p427
sg14
I350000
sg15
F1.0
sg16
F0.0
sg17
g6
sg18
I1585
sg19
g6
sg20
I49
sg21
I307895
sg22
F-0.12575197002501126
sg23
g6
sg24
F0.22217376460729532
sg25
F0.0
sg26
I1000000
sg27
I2502063
sg28
I58
sg29
F0.0
sg30
I12
sg31
F0.24489795918367346
sg32
I2502063
sg33
F0.0306553911205074
sg34
I415189
sg35
I1
sg36
I1868758
sg37
F0.16475916089723763
sg38
F0.746886970117471
sg39
g6
sg40
F0.016414110334243386
sg41
F0.0
ssS'TAYLOR MITCHELL S'
p428
(dp429
g3
I533
sg4
F0.5491171568910085
sg5
I227449
sg7
g6
sg8
F0.0
sg9
F0.0
sg10
I00
sg11
g6
sg12
S'mitchell.taylor@enron.com'
p430
sg14
g6
sg15
F0.15054493293543902
sg16
F0.0
sg17
g6
sg18
I300
sg19
g6
sg20
I29
sg21
g6
sg22
F0.0
sg23
g6
sg24
F0.24272259607948654
sg25
F0.849455067064561
sg26
I600000
sg27
I3745048
sg28
I0
sg29
F0.0
sg30
I0
sg31
F0.0
sg32
I563798
sg33
F0.0
sg34
I265214
sg35
I1
sg36
I1092663
sg37
F0.0
sg38
F0.29176227066721955
sg39
I3181250
sg40
F0.0
sg41
F0.20816024702950497
ssS'DONAHUE JR JEFFREY M'
p431
(dp432
g3
I865
sg4
F0.9134922809902256
sg5
g6
sg7
I96268
sg8
F0.0
sg9
F0.0
sg10
I00
sg11
I-300000
sg12
S'jeff.donahue@enron.com'
p433
sg14
g6
sg15
F0.2914629949638664
sg16
F0.0
sg17
g6
sg18
I772
sg19
g6
sg20
I22
sg21
I891
sg22
F-0.3425596053713346
sg23
g6
sg24
F0.3181248287201973
sg25
F0.7085370050361336
sg26
I800000
sg27
I1080988
sg28
I188
sg29
F0.0
sg30
I11
sg31
F0.5
sg32
I315068
sg33
F0.21734104046242775
sg34
I278601
sg35
I1
sg36
I875760
sg37
F0.0010174020279528637
sg38
F0.8101479293498823
sg39
I765920
sg40
F0.1099250936329588
sg41
F0.0
ssS'GLISAN JR BEN F'
p434
(dp435
g3
I873
sg4
F0.4715928204709012
sg5
g6
sg7
I125978
sg8
F0.055823228147174685
sg9
F0.0
sg10
I01
sg11
g6
sg12
S'ben.glisan@enron.com'
p436
sg14
I71023
sg15
F0.5058378053448351
sg16
F0.0
sg17
g6
sg18
I874
sg19
g6
sg20
I16
sg21
I200308
sg22
F0.0
sg23
g6
sg24
F0.21612705968164342
sg25
F0.49416219465516487
sg26
I600000
sg27
I778546
sg28
I52
sg29
F0.0
sg30
I6
sg31
F0.375
sg32
I393818
sg33
F0.05956471935853379
sg34
I274975
sg35
I1
sg36
I1272284
sg37
F0.1574396911381421
sg38
F1.6341787971695994
sg39
I384728
sg40
F0.09901720056213864
sg41
F0.0
ss.