(lp0
S'poi'
p1
aS'salary'
p2
aS'bonus'
p3
aS'long_term_incentive'
p4
aS'deferred_income'
p5
aS'deferral_payments'
p6
aS'loan_advances'
p7
aS'other'
p8
aS'director_fees'
p9
aS'expenses'
p10
aS'total_payments'
p11
aS'exercised_stock_options'
p12
aS'restricted_stock'
p13
aS'restricted_stock_deferred'
p14
aS'total_stock_value'
p15
aS'to_messages'
p16
aS'from_poi_to_this_person'
p17
aS'from_messages'
p18
aS'from_this_person_to_poi'
p19
aS'shared_receipt_with_poi'
p20
aS'emails_to_poi_share'
p21
aS'emails_from_poi_share'
p22
aS'total_payments_to_stock_value_ratio'
p23
aS'has_enron_email_address'
p24
aS'relative_salary'
p25
aS'relative_bonus'
p26
aS'relative_long_term_incentive'
p27
aS'relative_deferred_income'
p28
aS'relative_deferral_payments'
p29
aS'relative_loan_advances'
p30
aS'relative_other'
p31
aS'relative_director_fees'
p32
aS'relative_expenses'
p33
aS'relative_exercised_stock_options'
p34
aS'relative_restricted_stock'
p35
aS'relative_restricted_stock_deferred'
p36
a.